 kerberos

 Timestamp is 5dd0dca9 (Sun Nov 17 00:37:45 2019)

 Preferred load address is 0000000180000000

 Start         Length     Name                   Class
 0001:00000000 000000a0H .text$di                CODE
 0001:000000a0 0001c690H .text$mn                CODE
 0001:0001c730 00000020H .text$mn$00             CODE
 0001:0001c750 000003d0H .text$x                 CODE
 0001:0001cb20 00000043H .text$yd                CODE
 0002:00000000 00000260H .idata$5                DATA
 0002:00000260 00000010H .00cfg                  DATA
 0002:00000270 00000008H .CRT$XCA                DATA
 0002:00000278 00000030H .CRT$XCU                DATA
 0002:000002a8 00000008H .CRT$XCZ                DATA
 0002:000002b0 00000008H .CRT$XIA                DATA
 0002:000002b8 00000018H .CRT$XIC                DATA
 0002:000002d0 00000008H .CRT$XIZ                DATA
 0002:000002d8 00000008H .CRT$XPA                DATA
 0002:000002e0 00000010H .CRT$XPX                DATA
 0002:000002f0 00000008H .CRT$XPXA               DATA
 0002:000002f8 00000008H .CRT$XPZ                DATA
 0002:00000300 00000008H .CRT$XTA                DATA
 0002:00000308 00000008H .CRT$XTZ                DATA
 0002:00000310 00000000H .gfids$y                DATA
 0002:00000310 00009d60H .rdata                  DATA
 0002:0000a070 00000274H .rdata$r                DATA
 0002:0000a2e4 00000404H .rdata$zzzdbg           DATA
 0002:0000a6e8 00000008H .rtc$IAA                DATA
 0002:0000a6f0 00000008H .rtc$IZZ                DATA
 0002:0000a6f8 00000008H .rtc$TAA                DATA
 0002:0000a700 00000008H .rtc$TZZ                DATA
 0002:0000a708 000017f0H .xdata                  DATA
 0002:0000bef8 0000014cH .xdata$x                DATA
 0002:0000c044 00000020H .didat$2                DATA
 0002:0000c064 00000024H .didat$3                DATA
 0002:0000c088 00000260H .didat$4                DATA
 0002:0000c2e8 000013a8H .didat$6                DATA
 0002:0000d690 00000260H .didat$7                DATA
 0002:0000d8f0 00000054H .edata                  DATA
 0002:0000d944 00000014H .idata$2                DATA
 0002:0000d958 00000018H .idata$3                DATA
 0002:0000d970 00000260H .idata$4                DATA
 0002:0000dbd0 00000584H .idata$6                DATA
 0003:00000000 00000970H .data                   DATA
 0003:00000970 000000c8H .data$r                 DATA
 0003:00000a38 00000268H .didat$5                DATA
 0003:00000ca0 00001278H .bss                    DATA
 0004:00000000 00001aacH .pdata                  DATA
 0005:00000000 00000060H .rsrc$01                DATA
 0005:00000060 00000180H .rsrc$02                DATA

  Address         Publics by Value              Rva+Base               Lib:Object

 0000:00000000       __hybrid_code_map          0000000000000000     <absolute>
 0000:00000000       __guard_longjmp_count      0000000000000000     <absolute>
 0000:00000000       __guard_fids_count         0000000000000000     <absolute>
 0000:00000000       __guard_longjmp_table      0000000000000000     <absolute>
 0000:00000000       __volatile_metadata        0000000000000000     <absolute>
 0000:00000000       __guard_iat_table          0000000000000000     <absolute>
 0000:00000000       __guard_iat_count          0000000000000000     <absolute>
 0000:00000000       ___safe_se_handler_count   0000000000000000     <absolute>
 0000:00000000       __enclave_config           0000000000000000     <absolute>
 0000:00000000       ___safe_se_handler_table   0000000000000000     <absolute>
 0000:00000000       __hybrid_code_map_count    0000000000000000     <absolute>
 0000:00000000       __guard_fids_table         0000000000000000     <absolute>
 0000:00000000       __hybrid_auxiliary_iat     0000000000000000     <absolute>
 0000:00000000       __dynamic_value_reloc_table 0000000000000000     <absolute>
 0000:00000100       __guard_flags              0000000000000100     <absolute>
 0000:00000000       __ImageBase                0000000180000000     <linker-defined>
 0001:00000180       ?New@?$Factory@VFunctionTemplate@v8@@@imp@Nan@@SA?AV?$Local@VFunctionTemplate@v8@@@v8@@P6AXAEBV?$FunctionCallbackInfo@VValue@v8@@@3@@ZV?$Local@VValue@v8@@@5@V?$Local@VSignature@v8@@@5@@Z 0000000180001180 f i kerberos.obj
 0001:00000350       ?Wrap@ObjectWrap@Nan@@IEAAXV?$Local@VObject@v8@@@v8@@@Z 0000000180001350 f i kerberos.obj
 0001:00000430       ?Ref@ObjectWrap@Nan@@MEAAXXZ 0000000180001430 f i kerberos.obj
 0001:00000470       ?Unref@ObjectWrap@Nan@@MEAAXXZ 0000000180001470 f i kerberos.obj
 0001:00000520       ?WeakCallback@ObjectWrap@Nan@@CAXAEBV?$WeakCallbackInfo@VObjectWrap@Nan@@@v8@@@Z 0000000180001520 f i kerberos.obj
 0001:000005b0       ??_EObjectWrap@Nan@@UEAAPEAXI@Z 00000001800015b0 f i * CIL library *:* CIL module *
 0001:000005b0       ??_GObjectWrap@Nan@@UEAAPEAXI@Z 00000001800015b0 f i kerberos.obj
 0001:00000640       ??_GKerberos@@UEAAPEAXI@Z  0000000180001640 f i kerberos.obj
 0001:00000640       ??_EKerberos@@UEAAPEAXI@Z  0000000180001640 f i * CIL library *:* CIL module *
 0001:000006d0       ?New@Kerberos@@CAXAEBV?$FunctionCallbackInfo@VValue@v8@@@Nan@@@Z 00000001800016d0 f   kerberos.obj
 0001:00000770       ?init@@YAXV?$Local@VObject@v8@@@v8@@@Z 0000000180001770 f   kerberos.obj
 0001:00000ae0       base64_encode              0000000180001ae0 f   base64.obj
 0001:00000c40       base64_decode              0000000180001c40 f   base64.obj
 0001:00000de0       ??_EWorker@@UEAAPEAXI@Z    0000000180001de0 f i * CIL library *:* CIL module *
 0001:00000de0       ??_GWorker@@UEAAPEAXI@Z    0000000180001de0 f i worker.obj
 0001:00000e10       __local_stdio_printf_options 0000000180001e10 f i kerberos_sspi.obj
 0001:00000e20       printf                     0000000180001e20 f i kerberos_sspi.obj
 0001:00000e80       ?ThrowError@Nan@@YAXPEBD@Z 0000000180001e80 f i security_buffer.obj
 0001:00000f10       ?SetPrototypeMethod@Nan@@YAXV?$Local@VFunctionTemplate@v8@@@v8@@PEBDP6AXAEBV?$FunctionCallbackInfo@VValue@v8@@@1@@Z@Z 0000000180001f10 f i security_buffer.obj
 0001:00000ff0       ??_GSecurityBuffer@@UEAAPEAXI@Z 0000000180001ff0 f i security_buffer.obj
 0001:00000ff0       ??_ESecurityBuffer@@UEAAPEAXI@Z 0000000180001ff0 f i * CIL library *:* CIL module *
 0001:00001090       ?New@SecurityBuffer@@CAXAEBV?$FunctionCallbackInfo@VValue@v8@@@Nan@@@Z 0000000180002090 f   security_buffer.obj
 0001:000013a0       ?ToBuffer@SecurityBuffer@@SAXAEBV?$FunctionCallbackInfo@VValue@v8@@@Nan@@@Z 00000001800023a0 f   security_buffer.obj
 0001:00001450       ??$Unwrap@VSecurityCredentials@@@ObjectWrap@Nan@@SAPEAVSecurityCredentials@@V?$Local@VObject@v8@@@v8@@@Z 0000000180002450 f i security_context.obj
 0001:00001450       ??$Unwrap@VSecurityBuffer@@@ObjectWrap@Nan@@SAPEAVSecurityBuffer@@V?$Local@VObject@v8@@@v8@@@Z 0000000180002450 f i security_buffer.obj
 0001:00001450       ??$Unwrap@VSecurityContext@@@ObjectWrap@Nan@@SAPEAVSecurityContext@@V?$Local@VObject@v8@@@v8@@@Z 0000000180002450 f i security_context.obj
 0001:00001450       ??$Unwrap@VSecurityBufferDescriptor@@@ObjectWrap@Nan@@SAPEAVSecurityBufferDescriptor@@V?$Local@VObject@v8@@@v8@@@Z 0000000180002450 f i security_buffer_descriptor.obj
 0001:000014e0       ??_GSecurityBufferDescriptor@@UEAAPEAXI@Z 00000001800024e0 f i security_buffer_descriptor.obj
 0001:000014e0       ??_ESecurityBufferDescriptor@@UEAAPEAXI@Z 00000001800024e0 f i * CIL library *:* CIL module *
 0001:00001570       ??0SecurityBufferDescriptor@@QEAA@AEBV?$Persistent@VArray@v8@@V?$NonCopyablePersistentTraits@VArray@v8@@@2@@Nan@@@Z 0000000180002570 f   security_buffer_descriptor.obj
 0001:00001760       ?bufferSize@SecurityBufferDescriptor@@QEAA_KXZ 0000000180002760 f   security_buffer_descriptor.obj
 0001:00001920       ?toBuffer@SecurityBufferDescriptor@@QEAAPEADXZ 0000000180002920 f   security_buffer_descriptor.obj
 0001:00001a00       ?New@SecurityBufferDescriptor@@CAXAEBV?$FunctionCallbackInfo@VValue@v8@@@Nan@@@Z 0000000180002a00 f   security_buffer_descriptor.obj
 0001:00001db0       ?ToBuffer@SecurityBufferDescriptor@@SAXAEBV?$FunctionCallbackInfo@VValue@v8@@@Nan@@@Z 0000000180002db0 f   security_buffer_descriptor.obj
 0001:00001e70       ?Initialize@SecurityBufferDescriptor@@SAXV?$Local@VObject@v8@@@v8@@@Z 0000000180002e70 f   security_buffer_descriptor.obj
 0001:00002160       ?NewInstance@Nan@@YA?AV?$MaybeLocal@VObject@v8@@@v8@@V?$Local@VFunction@v8@@@3@@Z 0000000180003160 f i security_context.obj
 0001:000021f0       ?Call@Callback@Nan@@QEBA?AV?$Local@VValue@v8@@@v8@@HQEAV34@@Z 00000001800031f0 f i security_context.obj
 0001:00002410       ?SetAccessor@Nan@@YAXV?$Local@VObjectTemplate@v8@@@v8@@V?$Local@VString@v8@@@3@P6AX1AEBV?$PropertyCallbackInfo@VValue@v8@@@1@@ZP6AX1V?$Local@VValue@v8@@@3@AEBV?$PropertyCallbackInfo@X@1@@Z4W4AccessControl@3@W4PropertyAttribute@3@V?$Local@VAccessorSignature@v8@@@3@@Z 0000000180003410 f i security_context.obj
 0001:00002570       ?HasInstance@SecurityBufferDescriptor@@SA_NV?$Local@VValue@v8@@@v8@@@Z 0000000180003570 f i security_context.obj
 0001:000025e0       ?Process@SecurityCredentials@@CAXPEAUuv_work_s@@@Z 00000001800035e0 f   security_credentials.obj
 0001:00002830       ??_GSecurityContext@@UEAAPEAXI@Z 0000000180003830 f i security_context.obj
 0001:00002830       ??_ESecurityContext@@UEAAPEAXI@Z 0000000180003830 f i * CIL library *:* CIL module *
 0001:00002900       ?New@SecurityContext@@SAXAEBV?$FunctionCallbackInfo@VValue@v8@@@Nan@@@Z 0000000180003900 f   security_context.obj
 0001:00002df0       ?InitializeContext@SecurityContext@@SAXAEBV?$FunctionCallbackInfo@VValue@v8@@@Nan@@@Z 0000000180003df0 f   security_context.obj
 0001:00003260       ?PayloadGetter@SecurityContext@@SAXV?$Local@VString@v8@@@v8@@AEBV?$PropertyCallbackInfo@VValue@v8@@@Nan@@@Z 0000000180004260 f   security_context.obj
 0001:000032f0       ?HasContextGetter@SecurityContext@@SAXV?$Local@VString@v8@@@v8@@AEBV?$PropertyCallbackInfo@VValue@v8@@@Nan@@@Z 00000001800042f0 f   security_context.obj
 0001:000035a0       ?InitalizeStep@SecurityContext@@SAXAEBV?$FunctionCallbackInfo@VValue@v8@@@Nan@@@Z 00000001800045a0 f   security_context.obj
 0001:000039d0       ?EncryptMessage@SecurityContext@@SAXAEBV?$FunctionCallbackInfo@VValue@v8@@@Nan@@@Z 00000001800049d0 f   security_context.obj
 0001:00003d20       ?DecryptMessage@SecurityContext@@SAXAEBV?$FunctionCallbackInfo@VValue@v8@@@Nan@@@Z 0000000180004d20 f   security_context.obj
 0001:00004340       ?QueryContextAttributesA@SecurityContext@@SAXAEBV?$FunctionCallbackInfo@VValue@v8@@@Nan@@@Z 0000000180005340 f   security_context.obj
 0001:000045a0       ?Initialize@SecurityContext@@SAXV?$Local@VObject@v8@@@v8@@@Z 00000001800055a0 f   security_context.obj
 0001:00004960       ??_GSecurityCredentials@@UEAAPEAXI@Z 0000000180005960 f i security_credentials.obj
 0001:00004960       ??_ESecurityCredentials@@UEAAPEAXI@Z 0000000180005960 f i * CIL library *:* CIL module *
 0001:00004a40       ?New@SecurityCredentials@@CAXAEBV?$FunctionCallbackInfo@VValue@v8@@@Nan@@@Z 0000000180005a40 f   security_credentials.obj
 0001:00004e00       ?Acquire@SecurityCredentials@@SAXAEBV?$FunctionCallbackInfo@VValue@v8@@@Nan@@@Z 0000000180005e00 f   security_credentials.obj
 0001:000053a0       ?Initialize@SecurityCredentials@@SAXV?$Local@VObject@v8@@@v8@@@Z 00000001800063a0 f   security_credentials.obj
 0001:000055c0       ?After@SecurityCredentials@@CAXPEAUuv_work_s@@@Z 00000001800065c0 f   security_credentials.obj
 0001:0000592c       __imp_load_?Value@External@v8@@QEBAPEAXXZ 000000018000692c f   node:node.exe
 0001:00005938       __tailMerge_node_exe       0000000180006938     node:node.exe
 0001:000059b1       __imp_load_?New@External@v8@@SA?AV?$Local@VExternal@v8@@@2@PEAVIsolate@2@PEAX@Z 00000001800069b1 f   node:node.exe
 0001:000059bd       __imp_load_?GetCurrentContext@Isolate@v8@@QEAA?AV?$Local@VContext@v8@@@2@XZ 00000001800069bd f   node:node.exe
 0001:000059c9       __imp_load_?GetCurrent@Isolate@v8@@SAPEAV12@XZ 00000001800069c9 f   node:node.exe
 0001:000059d5       __imp_load_?CreateHandle@HandleScope@v8@@KAPEAPEAVObject@internal@2@PEAVIsolate@42@PEAV342@@Z 00000001800069d5 f   node:node.exe
 0001:000059e1       __imp_load_?CreateHandle@HandleScope@v8@@CAPEAPEAVObject@internal@2@PEAVHeapObject@42@PEAV342@@Z 00000001800069e1 f   node:node.exe
 0001:000059ed       __imp_load_??1HandleScope@v8@@QEAA@XZ 00000001800069ed f   node:node.exe
 0001:000059f9       __imp_load_??0HandleScope@v8@@QEAA@PEAVIsolate@1@@Z 00000001800069f9 f   node:node.exe
 0001:00005a05       __imp_load_?SetClassName@FunctionTemplate@v8@@QEAAXV?$Local@VString@v8@@@2@@Z 0000000180006a05 f   node:node.exe
 0001:00005a11       __imp_load_?InstanceTemplate@FunctionTemplate@v8@@QEAA?AV?$Local@VObjectTemplate@v8@@@2@XZ 0000000180006a11 f   node:node.exe
 0001:00005a1d       __imp_load_?GetFunction@FunctionTemplate@v8@@QEAA?AV?$Local@VFunction@v8@@@2@XZ 0000000180006a1d f   node:node.exe
 0001:00005a29       __imp_load_?New@FunctionTemplate@v8@@SA?AV?$Local@VFunctionTemplate@v8@@@2@PEAVIsolate@2@P6AXAEBV?$FunctionCallbackInfo@VValue@v8@@@2@@ZV?$Local@VValue@v8@@@2@V?$Local@VSignature@v8@@@2@HW4ConstructorBehavior@2@W4SideEffectType@2@@Z 0000000180006a29 f   node:node.exe
 0001:00005a35       __imp_load_?ToLocalEmpty@V8@v8@@CAXXZ 0000000180006a35 f   node:node.exe
 0001:00005a41       __imp_load_?ClearWeak@V8@v8@@CAPEAXPEAPEAVObject@internal@2@@Z 0000000180006a41 f   node:node.exe
 0001:00005a4d       __imp_load_?MakeWeak@V8@v8@@CAXPEAPEAVObject@internal@2@PEAXP6AXAEBV?$WeakCallbackInfo@X@2@@ZW4WeakCallbackType@2@@Z 0000000180006a4d f   node:node.exe
 0001:00005a59       __imp_load_?DisposeGlobal@V8@v8@@CAXPEAPEAVObject@internal@2@@Z 0000000180006a59 f   node:node.exe
 0001:00005a65       __imp_load_?GlobalizeReference@V8@v8@@CAPEAPEAVObject@internal@2@PEAVIsolate@42@PEAPEAV342@@Z 0000000180006a65 f   node:node.exe
 0001:00005a71       __imp_load_?Escape@EscapableHandleScope@v8@@AEAAPEAPEAVObject@internal@2@PEAPEAV342@@Z 0000000180006a71 f   node:node.exe
 0001:00005a7d       __imp_load_??0EscapableHandleScope@v8@@QEAA@PEAVIsolate@1@@Z 0000000180006a7d f   node:node.exe
 0001:00005a89       __imp_load_?NewFromUtf8@String@v8@@SA?AV?$MaybeLocal@VString@v8@@@2@PEAVIsolate@2@PEBDW4NewStringType@2@H@Z 0000000180006a89 f   node:node.exe
 0001:00005a95       __imp_load_?SlowGetInternalField@Object@v8@@AEAA?AV?$Local@VValue@v8@@@2@H@Z 0000000180006a95 f   node:node.exe
 0001:00005aa1       __imp_load_?SetAlignedPointerInInternalField@Object@v8@@QEAAXHPEAX@Z 0000000180006aa1 f   node:node.exe
 0001:00005aad       __imp_load_?SetInternalField@Object@v8@@QEAAXHV?$Local@VValue@v8@@@2@@Z 0000000180006aad f   node:node.exe
 0001:00005ab9       __imp_load_?InternalFieldCount@Object@v8@@QEAAHXZ 0000000180006ab9 f   node:node.exe
 0001:00005ac5       __imp_load_?Set@Object@v8@@QEAA?AV?$Maybe@_N@2@V?$Local@VContext@v8@@@2@V?$Local@VValue@v8@@@2@1@Z 0000000180006ac5 f   node:node.exe
 0001:00005ad1       __imp_load_?SetInternalFieldCount@ObjectTemplate@v8@@QEAAXH@Z 0000000180006ad1 f   node:node.exe
 0001:00005add       __imp_load_?NewInstance@ObjectTemplate@v8@@QEAA?AV?$MaybeLocal@VObject@v8@@@2@V?$Local@VContext@v8@@@2@@Z 0000000180006add f   node:node.exe
 0001:00005ae9       __imp_load_?New@ObjectTemplate@v8@@SA?AV?$Local@VObjectTemplate@v8@@@2@PEAVIsolate@2@V?$Local@VFunctionTemplate@v8@@@2@@Z 0000000180006ae9 f   node:node.exe
 0001:00005af5       __imp_load_node_module_register 0000000180006af5 f   node:node.exe
 0001:00005b01       __imp_load_?New@Signature@v8@@SA?AV?$Local@VSignature@v8@@@2@PEAVIsolate@2@V?$Local@VFunctionTemplate@v8@@@2@@Z 0000000180006b01 f   node:node.exe
 0001:00005b0d       __imp_load_?ThrowException@Isolate@v8@@QEAA?AV?$Local@VValue@v8@@@2@V32@@Z 0000000180006b0d f   node:node.exe
 0001:00005b19       __imp_load_?Set@Template@v8@@QEAAXV?$Local@VName@v8@@@2@V?$Local@VData@v8@@@2@W4PropertyAttribute@2@@Z 0000000180006b19 f   node:node.exe
 0001:00005b25       __imp_load_?Error@Exception@v8@@SA?AV?$Local@VValue@v8@@@2@V?$Local@VString@v8@@@2@@Z 0000000180006b25 f   node:node.exe
 0001:00005b31       __imp_load_?PrototypeTemplate@FunctionTemplate@v8@@QEAA?AV?$Local@VObjectTemplate@v8@@@2@XZ 0000000180006b31 f   node:node.exe
 0001:00005b3d       __imp_load_?FromJustIsNothing@V8@v8@@CAXXZ 0000000180006b3d f   node:node.exe
 0001:00005b49       __imp_load_?Uint32Value@Value@v8@@QEBA?AV?$Maybe@I@2@V?$Local@VContext@v8@@@2@@Z 0000000180006b49 f   node:node.exe
 0001:00005b55       __imp_load_?IsInt32@Value@v8@@QEBA_NXZ 0000000180006b55 f   node:node.exe
 0001:00005b61       __imp_load_?SlowGetAlignedPointerFromInternalField@Object@v8@@AEAAPEAXH@Z 0000000180006b61 f   node:node.exe
 0001:00005b6d       __imp_load_?Set@Object@v8@@QEAA_NV?$Local@VValue@v8@@@2@0@Z 0000000180006b6d f   node:node.exe
 0001:00005b79       __imp_load_?HasInstance@Buffer@node@@YA_NV?$Local@VValue@v8@@@v8@@@Z 0000000180006b79 f   node:node.exe
 0001:00005b85       __imp_load_?Data@Buffer@node@@YAPEADV?$Local@VObject@v8@@@v8@@@Z 0000000180006b85 f   node:node.exe
 0001:00005b91       __imp_load_?Copy@Buffer@node@@YA?AV?$MaybeLocal@VObject@v8@@@v8@@PEAVIsolate@4@PEBD_K@Z 0000000180006b91 f   node:node.exe
 0001:00005b9d       __imp_load_?Length@Buffer@node@@YA_KV?$Local@VObject@v8@@@v8@@@Z 0000000180006b9d f   node:node.exe
 0001:00005ba9       __imp_load_?ToObject@Value@v8@@QEBA?AV?$Local@VObject@v8@@@2@XZ 0000000180006ba9 f   node:node.exe
 0001:00005bb5       __imp_load_?New@Integer@v8@@SA?AV?$Local@VInteger@v8@@@2@PEAVIsolate@2@H@Z 0000000180006bb5 f   node:node.exe
 0001:00005bc1       __imp_load_?New@Array@v8@@SA?AV?$Local@VArray@v8@@@2@PEAVIsolate@2@H@Z 0000000180006bc1 f   node:node.exe
 0001:00005bcd       __imp_load_?Length@Array@v8@@QEBAIXZ 0000000180006bcd f   node:node.exe
 0001:00005bd9       __imp_load_?HasInstance@FunctionTemplate@v8@@QEAA_NV?$Local@VValue@v8@@@2@@Z 0000000180006bd9 f   node:node.exe
 0001:00005be5       __imp_load_?ToInt32@Value@v8@@QEBA?AV?$MaybeLocal@VInt32@v8@@@2@V?$Local@VContext@v8@@@2@@Z 0000000180006be5 f   node:node.exe
 0001:00005bf1       __imp_load_?IsObject@Value@v8@@QEBA_NXZ 0000000180006bf1 f   node:node.exe
 0001:00005bfd       __imp_load_?IsArray@Value@v8@@QEBA_NXZ 0000000180006bfd f   node:node.exe
 0001:00005c09       __imp_load_?Get@Object@v8@@QEAA?AV?$Local@VValue@v8@@@2@I@Z 0000000180006c09 f   node:node.exe
 0001:00005c15       __imp_load_?Set@Object@v8@@QEAA_NIV?$Local@VValue@v8@@@2@@Z 0000000180006c15 f   node:node.exe
 0001:00005c21       __imp_load_?NewInstance@Function@v8@@QEBA?AV?$MaybeLocal@VObject@v8@@@2@V?$Local@VContext@v8@@@2@HQEAV?$Local@VValue@v8@@@2@@Z 0000000180006c21 f   node:node.exe
 0001:00005c2d       __imp_load_uv_queue_work   0000000180006c2d f   node:node.exe
 0001:00005c39       __imp_load_?Global@Context@v8@@QEAA?AV?$Local@VObject@v8@@@2@XZ 0000000180006c39 f   node:node.exe
 0001:00005c45       __imp_load_?Value@Integer@v8@@QEBA_JXZ 0000000180006c45 f   node:node.exe
 0001:00005c51       __imp_load_?NewFromUnsigned@Integer@v8@@SA?AV?$Local@VInteger@v8@@@2@PEAVIsolate@2@I@Z 0000000180006c51 f   node:node.exe
 0001:00005c5d       __imp_load_?ToInteger@Value@v8@@QEBA?AV?$MaybeLocal@VInteger@v8@@@2@V?$Local@VContext@v8@@@2@@Z 0000000180006c5d f   node:node.exe
 0001:00005c69       __imp_load_?IsUint32@Value@v8@@QEBA_NXZ 0000000180006c69 f   node:node.exe
 0001:00005c75       __imp_load_?IsFunction@Value@v8@@QEBA_NXZ 0000000180006c75 f   node:node.exe
 0001:00005c81       __imp_load_?HasCaught@TryCatch@v8@@QEBA_NXZ 0000000180006c81 f   node:node.exe
 0001:00005c8d       __imp_load_??1TryCatch@v8@@QEAA@XZ 0000000180006c8d f   node:node.exe
 0001:00005c99       __imp_load_??0TryCatch@v8@@QEAA@PEAVIsolate@1@@Z 0000000180006c99 f   node:node.exe
 0001:00005ca5       __imp_load_?WriteUtf8@String@v8@@QEBAHPEADHPEAHH@Z 0000000180006ca5 f   node:node.exe
 0001:00005cb1       __imp_load_?Utf8Length@String@v8@@QEBAHXZ 0000000180006cb1 f   node:node.exe
 0001:00005cbd       __imp_load_?New@Object@v8@@SA?AV?$Local@VObject@v8@@@2@PEAVIsolate@2@@Z 0000000180006cbd f   node:node.exe
 0001:00005cc9       __imp_load_?SetAccessor@ObjectTemplate@v8@@QEAAXV?$Local@VName@v8@@@2@P6AX0AEBV?$PropertyCallbackInfo@VValue@v8@@@2@@ZP6AX0V?$Local@VValue@v8@@@2@AEBV?$PropertyCallbackInfo@X@2@@Z3W4AccessControl@2@W4PropertyAttribute@2@V?$Local@VAccessorSignature@v8@@@2@@Z 0000000180006cc9 f   node:node.exe
 0001:00005cd5       __imp_load_?EmitAsyncDestroy@node@@YAXPEAVIsolate@v8@@Uasync_context@1@@Z 0000000180006cd5 f   node:node.exe
 0001:00005ce1       __imp_load_?FatalException@node@@YAXPEAVIsolate@v8@@AEBVTryCatch@3@@Z 0000000180006ce1 f   node:node.exe
 0001:00005ced       __imp_load_?MakeCallback@node@@YA?AV?$MaybeLocal@VValue@v8@@@v8@@PEAVIsolate@3@V?$Local@VObject@v8@@@3@V?$Local@VFunction@v8@@@3@HPEAV?$Local@VValue@v8@@@3@Uasync_context@1@@Z 0000000180006ced f   node:node.exe
 0001:00005cf9       __imp_load_?EmitAsyncInit@node@@YA?AUasync_context@1@PEAVIsolate@v8@@V?$Local@VObject@v8@@@4@V?$Local@VString@v8@@@4@N@Z 0000000180006cf9 f   node:node.exe
 0001:00005d05       __imp_load_uv_default_loop 0000000180006d05 f   node:node.exe
 0001:00005d11       __imp_load_?ToInteger@Value@v8@@QEBA?AV?$Local@VInteger@v8@@@2@XZ 0000000180006d11 f   node:node.exe
 0001:00005d1d       __imp_load_?ToString@Value@v8@@QEBA?AV?$Local@VString@v8@@@2@XZ 0000000180006d1d f   node:node.exe
 0001:00005d40       __security_check_cookie    0000000180006d40 f   LIBCMT:_amdsecgs_.obj
 0001:00005d64       ??2@YAPEAX_K@Z             0000000180006d64 f   LIBCMT:new_scalar.obj
 0001:00005da0       __scrt_acquire_startup_lock 0000000180006da0 f   LIBCMT:utility.obj
 0001:00005ddc       __scrt_dllmain_after_initialize_c 0000000180006ddc f   LIBCMT:utility.obj
 0001:00005e10       __scrt_dllmain_before_initialize_c 0000000180006e10 f   LIBCMT:utility.obj
 0001:00005e28       __scrt_dllmain_crt_thread_attach 0000000180006e28 f   LIBCMT:utility.obj
 0001:00005e50       __scrt_dllmain_crt_thread_detach 0000000180006e50 f   LIBCMT:utility.obj
 0001:00005e68       __scrt_dllmain_exception_filter 0000000180006e68 f   LIBCMT:utility.obj
 0001:00005ec8       __scrt_dllmain_uninitialize_c 0000000180006ec8 f   LIBCMT:utility.obj
 0001:00005ef8       __scrt_dllmain_uninitialize_critical 0000000180006ef8 f   LIBCMT:utility.obj
 0001:00005f0c       __scrt_initialize_crt      0000000180006f0c f   LIBCMT:utility.obj
 0001:00005f58       __scrt_initialize_onexit_tables 0000000180006f58 f   LIBCMT:utility.obj
 0001:00006030       __scrt_is_nonwritable_in_current_image 0000000180007030 f   LIBCMT:utility.obj
 0001:000060cc       __scrt_release_startup_lock 00000001800070cc f   LIBCMT:utility.obj
 0001:000060f0       __scrt_uninitialize_crt    00000001800070f0 f   LIBCMT:utility.obj
 0001:0000611c       _onexit                    000000018000711c f   LIBCMT:utility.obj
 0001:0000616c       atexit                     000000018000716c f   LIBCMT:utility.obj
 0001:00006184       ??3@YAXPEAX_K@Z            0000000180007184 f   LIBCMT:delete_scalar_size.obj
 0001:0000618c       ??_U@YAPEAX_K@Z            000000018000718c f   LIBCMT:new_array.obj
 0001:000064c4       _DllMainCRTStartup         00000001800074c4 f   LIBCMT:dll_dllmain.obj
 0001:00006504       __raise_securityfailure    0000000180007504 f   LIBCMT:gs_report.obj
 0001:00006538       __report_gsfailure         0000000180007538 f   LIBCMT:gs_report.obj
 0001:0000660c       __report_rangecheckfailure 000000018000760c f   LIBCMT:gs_report.obj
 0001:00006620       __report_securityfailure   0000000180007620 f   LIBCMT:gs_report.obj
 0001:000067a0       ??0bad_alloc@std@@QEAA@AEBV01@@Z 00000001800077a0 f i LIBCMT:throw_bad_alloc.obj
 0001:000067e0       ??0bad_alloc@std@@QEAA@XZ  00000001800077e0 f i LIBCMT:throw_bad_alloc.obj
 0001:00006800       ??0bad_array_new_length@std@@QEAA@AEBV01@@Z 0000000180007800 f i LIBCMT:throw_bad_alloc.obj
 0001:00006840       ??0bad_array_new_length@std@@QEAA@XZ 0000000180007840 f i LIBCMT:throw_bad_alloc.obj
 0001:00006860       ??0exception@std@@QEAA@AEBV01@@Z 0000000180007860 f i LIBCMT:throw_bad_alloc.obj
 0001:00006898       ??1bad_array_new_length@std@@UEAA@XZ 0000000180007898 f i LIBCMT:throw_bad_alloc.obj
 0001:00006898       ??1bad_alloc@std@@UEAA@XZ  0000000180007898 f i LIBCMT:throw_bad_alloc.obj
 0001:00006898       ??1bad_exception@std@@UEAA@XZ 0000000180007898 f i libvcruntime:frame.obj
 0001:000068ac       ??_Ebad_exception@std@@UEAAPEAXI@Z 00000001800078ac f i libvcruntime:frame.obj
 0001:000068ac       ??_Ebad_array_new_length@std@@UEAAPEAXI@Z 00000001800078ac f i LIBCMT:throw_bad_alloc.obj
 0001:000068ac       ??_Gexception@std@@UEAAPEAXI@Z 00000001800078ac f i LIBCMT:throw_bad_alloc.obj
 0001:000068ac       ??_Ebad_alloc@std@@UEAAPEAXI@Z 00000001800078ac f i LIBCMT:throw_bad_alloc.obj
 0001:000068ac       ??_Gbad_alloc@std@@UEAAPEAXI@Z 00000001800078ac f i LIBCMT:throw_bad_alloc.obj
 0001:000068ac       ??_Gbad_exception@std@@UEAAPEAXI@Z 00000001800078ac f i libvcruntime:frame.obj
 0001:000068ac       ??_Gbad_array_new_length@std@@UEAAPEAXI@Z 00000001800078ac f i LIBCMT:throw_bad_alloc.obj
 0001:000068ac       ??_Eexception@std@@UEAAPEAXI@Z 00000001800078ac f i LIBCMT:throw_bad_alloc.obj
 0001:000068f0       ?__scrt_throw_std_bad_alloc@@YAXXZ 00000001800078f0 f   LIBCMT:throw_bad_alloc.obj
 0001:00006910       ?__scrt_throw_std_bad_array_new_length@@YAXXZ 0000000180007910 f   LIBCMT:throw_bad_alloc.obj
 0001:00006930       ?what@exception@std@@UEBAPEBDXZ 0000000180007930 f i LIBCMT:throw_bad_alloc.obj
 0001:00006944       __isa_available_init       0000000180007944 f   LIBCMT:_cpu_disp_.obj
 0001:00006b00       DllMain                    0000000180007b00 f   LIBCMT:dll_dllmain_stub.obj
 0001:00006b00       _get_startup_argv_mode     0000000180007b00 f   LIBCMT:argv_mode.obj
 0001:00006b08       __scrt_is_ucrt_dll_in_use  0000000180007b08 f   LIBCMT:ucrt_detection.obj
 0001:00006b14       __crt_debugger_hook        0000000180007b14 f   LIBCMT:utility_desktop.obj
 0001:00006b1c       __scrt_fastfail            0000000180007b1c f   LIBCMT:utility_desktop.obj
 0001:00006c68       _guard_check_icall_nop     0000000180007c68 f i LIBCMT:guard_support.obj
 0001:00006c6c       ??3@YAXPEAX@Z              0000000180007c6c f   LIBCMT:delete_scalar.obj
 0001:00006c74       __security_init_cookie     0000000180007c74 f   LIBCMT:gs_support.obj
 0001:00006d20       ?__scrt_initialize_type_info@@YAXXZ 0000000180007d20 f   LIBCMT:tncleanup.obj
 0001:00006d30       ?__scrt_uninitialize_type_info@@YAXXZ 0000000180007d30 f   LIBCMT:tncleanup.obj
 0001:00006d3c       __local_stdio_scanf_options 0000000180007d3c f i LIBCMT:default_local_stdio_options.obj
 0001:00006d44       __scrt_initialize_default_local_stdio_options 0000000180007d44 f   LIBCMT:default_local_stdio_options.obj
 0001:00006d60       __scrt_get_dyn_tls_init_callback 0000000180007d60 f   LIBCMT:dyn_tls_init.obj
 0001:00006d68       _RTC_Initialize            0000000180007d68 f   LIBCMT:_initsect_.obj
 0001:00006da4       _RTC_Terminate             0000000180007da4 f   LIBCMT:_initsect_.obj
 0001:00006de0       ??_Gtype_info@@UEAAPEAXI@Z 0000000180007de0 f i LIBCMT:std_type_info_static.obj
 0001:00006de0       ??_Etype_info@@UEAAPEAXI@Z 0000000180007de0 f i LIBCMT:std_type_info_static.obj
 0001:00006e10       __vcrt_initialize          0000000180007e10 f   libvcruntime:initialization.obj
 0001:00006e44       __vcrt_thread_attach       0000000180007e44 f   libvcruntime:initialization.obj
 0001:00006e58       __vcrt_thread_detach       0000000180007e58 f   libvcruntime:initialization.obj
 0001:00006e6c       __vcrt_uninitialize        0000000180007e6c f   libvcruntime:initialization.obj
 0001:00006e8c       __vcrt_uninitialize_critical 0000000180007e8c f   libvcruntime:initialization.obj
 0001:00006e9c       __C_specific_handler       0000000180007e9c f   libvcruntime:_riscchandler_.obj
 0001:000070a8       __std_exception_copy       00000001800080a8 f   libvcruntime:std_exception.obj
 0001:00007138       __std_exception_destroy    0000000180008138 f   libvcruntime:std_exception.obj
 0001:00007160       _CxxThrowException         0000000180008160 f   libvcruntime:throw.obj
 0001:00007230       memset_repmovs             0000000180008230 f   libvcruntime:memset.obj
 0001:00007250       memset                     0000000180008250 f   libvcruntime:memset.obj
 0001:000073e0       __std_type_info_compare    00000001800083e0 f   libvcruntime:std_type_info.obj
 0001:00007408       __std_type_info_destroy_list 0000000180008408 f   libvcruntime:std_type_info.obj
 0001:00007434       __vcrt_freefls             0000000180008434 f   libvcruntime:per_thread_data.obj
 0001:00007454       __vcrt_freeptd             0000000180008454 f   libvcruntime:per_thread_data.obj
 0001:000074a4       __vcrt_getptd              00000001800084a4 f   libvcruntime:per_thread_data.obj
 0001:000074c0       __vcrt_getptd_noexit       00000001800084c0 f   libvcruntime:per_thread_data.obj
 0001:0000758c       __vcrt_initialize_ptd      000000018000858c f   libvcruntime:per_thread_data.obj
 0001:000075e0       __vcrt_uninitialize_ptd    00000001800085e0 f   libvcruntime:per_thread_data.obj
 0001:00007604       __vcrt_initialize_locks    0000000180008604 f   libvcruntime:locks.obj
 0001:0000764c       __vcrt_uninitialize_locks  000000018000864c f   libvcruntime:locks.obj
 0001:0000785c       __vcrt_FlsAlloc            000000018000885c f   libvcruntime:winapi_downlevel.obj
 0001:000078a4       __vcrt_FlsFree             00000001800088a4 f   libvcruntime:winapi_downlevel.obj
 0001:000078ec       __vcrt_FlsGetValue         00000001800088ec f   libvcruntime:winapi_downlevel.obj
 0001:00007934       __vcrt_FlsSetValue         0000000180008934 f   libvcruntime:winapi_downlevel.obj
 0001:00007988       __vcrt_InitializeCriticalSectionEx 0000000180008988 f   libvcruntime:winapi_downlevel.obj
 0001:000079ec       __vcrt_initialize_winapi_thunks 00000001800089ec f   libvcruntime:winapi_downlevel.obj
 0001:00007a1c       __vcrt_uninitialize_winapi_thunks 0000000180008a1c f   libvcruntime:winapi_downlevel.obj
 0001:00007a5c       __vcrt_initialize_pure_virtual_call_handler 0000000180008a5c f   libvcruntime:purevirt_data.obj
 0001:00007a80       _NLG_Notify                0000000180008a80 f   libvcruntime:_notify_.obj
 0001:00007aa0       __NLG_Dispatch2            0000000180008aa0 f   libvcruntime:_notify_.obj
 0001:00007ab0       __NLG_Return2              0000000180008ab0 f   libvcruntime:_notify_.obj
 0001:00007ab4       __except_validate_context_record 0000000180008ab4 f   libvcruntime:jbcxrval.obj
 0001:00007aec       __DestructExceptionObject  0000000180008aec f   libvcruntime:ehhelpers.obj
 0001:00007b60       ?_CallMemberFunction0@@YAXQEAX0@Z 0000000180008b60 f i libvcruntime:ehhelpers.obj
 0001:00007b64       _IsExceptionObjectToBeDestroyed 0000000180008b64 f   libvcruntime:ehhelpers.obj
 0001:00007b94       __AdjustPointer            0000000180008b94 f   libvcruntime:ehhelpers.obj
 0001:00007bb8       __FrameUnwindFilter        0000000180008bb8 f   libvcruntime:ehhelpers.obj
 0001:00007c04       ??$_CallSETranslator@V__FrameHandler3@@@@YAHPEAUEHExceptionRecord@@PEA_KPEAU_CONTEXT@@PEAU_xDISPATCHER_CONTEXT@@PEBU_s_FuncInfo@@K1@Z 0000000180008c04 f i libvcruntime:risctrnsctrl.obj
 0001:00007c58       ?CatchTryBlock@__FrameHandler3@@SAPEBU_s_TryBlockMapEntry@@PEBU_s_FuncInfo@@H@Z 0000000180008c58 f   libvcruntime:risctrnsctrl.obj
 0001:00007cb0       ?ExecutionInCatch@__FrameHandler3@@SA_NPEAU_xDISPATCHER_CONTEXT@@PEBU_s_FuncInfo@@@Z 0000000180008cb0 f   libvcruntime:risctrnsctrl.obj
 0001:00007cdc       ?FrameUnwindToEmptyState@__FrameHandler3@@SAXPEA_KPEAU_xDISPATCHER_CONTEXT@@PEBU_s_FuncInfo@@@Z 0000000180008cdc f   libvcruntime:risctrnsctrl.obj
 0001:00007d40       ?GetEstablisherFrame@__FrameHandler3@@SAPEA_KPEA_KPEAU_xDISPATCHER_CONTEXT@@PEBU_s_FuncInfo@@0@Z 0000000180008d40 f   libvcruntime:risctrnsctrl.obj
 0001:00007e0c       ?GetRangeOfTrysToCheck@__FrameHandler3@@SA?AU?$pair@Viterator@TryBlockMap@__FrameHandler3@@V123@@std@@AEAVTryBlockMap@1@HH@Z 0000000180008e0c f   libvcruntime:risctrnsctrl.obj
 0001:00007f68       ?UnwindNestedFrames@__FrameHandler3@@SAXPEA_KPEAUEHExceptionRecord@@PEAU_CONTEXT@@0PEAXPEBU_s_FuncInfo@@HHPEBU_s_HandlerType@@PEAU_xDISPATCHER_CONTEXT@@E@Z 0000000180008f68 f   libvcruntime:risctrnsctrl.obj
 0001:0000808c       _CreateFrameInfo           000000018000908c f   libvcruntime:risctrnsctrl.obj
 0001:000080c8       _FindAndUnlinkFrame        00000001800090c8 f   libvcruntime:risctrnsctrl.obj
 0001:0000811c       _GetImageBase              000000018000911c f   libvcruntime:risctrnsctrl.obj
 0001:00008130       _GetThrowImageBase         0000000180009130 f   libvcruntime:risctrnsctrl.obj
 0001:00008144       _SetImageBase              0000000180009144 f   libvcruntime:risctrnsctrl.obj
 0001:0000815c       _SetThrowImageBase         000000018000915c f   libvcruntime:risctrnsctrl.obj
 0001:00008174       __CxxFrameHandler3         0000000180009174 f   libvcruntime:risctrnsctrl.obj
 0001:00008210       memcpy_repmovs             0000000180009210 f   libvcruntime:memcpy.obj
 0001:00008230       memcpy                     0000000180009230 f   libvcruntime:memcpy.obj
 0001:00008230       memmove                    0000000180009230 f   libvcruntime:memcpy.obj
 0001:00008668       ?GetCurrentState@__FrameHandler3@@SAHPEA_KPEAU_xDISPATCHER_CONTEXT@@PEBU_s_FuncInfo@@@Z 0000000180009668 f   libvcruntime:ehstate.obj
 0001:00008690       ?GetUnwindTryBlock@__FrameHandler3@@SAHPEA_KPEAU_xDISPATCHER_CONTEXT@@PEBU_s_FuncInfo@@@Z 0000000180009690 f   libvcruntime:ehstate.obj
 0001:000086bc       ?SetState@__FrameHandler3@@SAXPEA_KPEBU_s_FuncInfo@@H@Z 00000001800096bc f   libvcruntime:ehstate.obj
 0001:000086c8       ?SetUnwindTryBlock@__FrameHandler3@@SAXPEA_KPEAU_xDISPATCHER_CONTEXT@@PEBU_s_FuncInfo@@H@Z 00000001800096c8 f   libvcruntime:ehstate.obj
 0001:00008704       ?StateFromControlPc@__FrameHandler3@@SAHPEBU_s_FuncInfo@@PEAU_xDISPATCHER_CONTEXT@@@Z 0000000180009704 f   libvcruntime:ehstate.obj
 0001:0000870c       ?StateFromIp@__FrameHandler3@@SAHPEBU_s_FuncInfo@@PEAU_xDISPATCHER_CONTEXT@@_K@Z 000000018000970c f   libvcruntime:ehstate.obj
 0001:00009198       ??$TypeMatchHelper@$$CBU_s_HandlerType@@@@YAHPEBU_s_HandlerType@@PEBU_s_CatchableType@@PEBU_s_ThrowInfo@@@Z 000000018000a198 f i libvcruntime:frame.obj
 0001:000092dc       ??$__InternalCxxFrameHandler@V__FrameHandler3@@@@YA?AW4_EXCEPTION_DISPOSITION@@PEAUEHExceptionRecord@@PEA_KPEAU_CONTEXT@@PEAU_xDISPATCHER_CONTEXT@@PEBU_s_FuncInfo@@H1E@Z 000000018000a2dc f i libvcruntime:frame.obj
 0001:00009524       ??0bad_exception@std@@QEAA@AEBV01@@Z 000000018000a524 f i libvcruntime:frame.obj
 0001:00009564       ??0bad_exception@std@@QEAA@XZ 000000018000a564 f i libvcruntime:frame.obj
 0001:00009584       ?CxxCallCatchBlock@__FrameHandler3@@SAPEAXPEAU_EXCEPTION_RECORD@@@Z 000000018000a584 f   libvcruntime:frame.obj
 0001:000097f8       ?FrameUnwindToState@__FrameHandler3@@SAXPEA_KPEAU_xDISPATCHER_CONTEXT@@PEBU_s_FuncInfo@@H@Z 000000018000a7f8 f   libvcruntime:frame.obj
 0001:0000998c       ?GetHandlerSearchState@__FrameHandler3@@SAHPEA_KPEAU_xDISPATCHER_CONTEXT@@PEBU_s_FuncInfo@@@Z 000000018000a98c f i libvcruntime:frame.obj
 0001:00009b90       ?_CallMemberFunction1@@YAXQEAX00@Z 000000018000ab90 f i libvcruntime:frame.obj
 0001:00009b9c       ?_CallMemberFunction2@@YAXQEAX00H@Z 000000018000ab9c f i libvcruntime:frame.obj
 0001:00009bc0       _CallSettingFrame          000000018000abc0 f   libvcruntime:handlers.obj
 0001:00009c10       _CallSettingFrameEncoded   000000018000ac10 f   libvcruntime:handlers.obj
 0001:0000a630       ??$ftprintf@PEAU_iobuf@@PEB_WAEBQEB_WAEBQEB_WAEBI@?$__crt_char_traits@_W@@SAH$$QEAPEAU_iobuf@@$$QEAPEB_WAEBQEB_W2AEBI@Z 000000018000b630 f i libucrt:assert.obj
 0001:0000a658       _wassert                   000000018000b658 f   libucrt:assert.obj
 0001:0000a6dc       fwprintf                   000000018000b6dc f i libucrt:assert.obj
 0001:0000a720       swprintf                   000000018000b720 f i libucrt:assert.obj
 0001:0000a774       malloc                     000000018000b774 f   libucrt:malloc.obj
 0001:0000a77c       __acrt_initialize_stdio    000000018000b77c f   libucrt:_file.obj
 0001:0000a89c       __acrt_iob_func            000000018000b89c f   libucrt:_file.obj
 0001:0000a8b0       __acrt_uninitialize_stdio  000000018000b8b0 f   libucrt:_file.obj
 0001:0000a90c       _lock_file                 000000018000b90c f   libucrt:_file.obj
 0001:0000a918       _unlock_file               000000018000b918 f   libucrt:_file.obj
 0001:0000ab78       ??$ensure_buffer_is_big_enough@D@formatting_buffer@__crt_stdio_output@@QEAA_N_K@Z 000000018000bb78 f i libucrt:output.obj
 0001:0000ac20       ??$ensure_buffer_is_big_enough@_W@formatting_buffer@__crt_stdio_output@@QEAA_N_K@Z 000000018000bc20 f i libucrt:output.obj
 0001:0000accc       ??$is_wide_character_specifier@_W@__crt_stdio_output@@YA_N_K_WW4length_modifier@0@@Z 000000018000bccc f i libucrt:output.obj
 0001:0000ad0c       ??$type_case_integer_parse_into_buffer@I@?$output_processor@DV?$stream_output_adapter@D@__crt_stdio_output@@V?$standard_base@DV?$stream_output_adapter@D@__crt_stdio_output@@@2@@__crt_stdio_output@@AEAAXII_N@Z 000000018000bd0c f i libucrt:output.obj
 0001:0000ad9c       ??$type_case_integer_parse_into_buffer@I@?$output_processor@_WV?$stream_output_adapter@_W@__crt_stdio_output@@V?$standard_base@_WV?$stream_output_adapter@_W@__crt_stdio_output@@@2@@__crt_stdio_output@@AEAAXII_N@Z 000000018000bd9c f i libucrt:output.obj
 0001:0000ad9c       ??$type_case_integer_parse_into_buffer@I@?$output_processor@_WV?$string_output_adapter@_W@__crt_stdio_output@@V?$standard_base@_WV?$string_output_adapter@_W@__crt_stdio_output@@@2@@__crt_stdio_output@@AEAAXII_N@Z 000000018000bd9c f i libucrt:output.obj
 0001:0000ae3c       ??$type_case_integer_parse_into_buffer@_K@?$output_processor@DV?$stream_output_adapter@D@__crt_stdio_output@@V?$standard_base@DV?$stream_output_adapter@D@__crt_stdio_output@@@2@@__crt_stdio_output@@AEAAX_KI_N@Z 000000018000be3c f i libucrt:output.obj
 0001:0000aed0       ??$type_case_integer_parse_into_buffer@_K@?$output_processor@_WV?$stream_output_adapter@_W@__crt_stdio_output@@V?$standard_base@_WV?$stream_output_adapter@_W@__crt_stdio_output@@@2@@__crt_stdio_output@@AEAAX_KI_N@Z 000000018000bed0 f i libucrt:output.obj
 0001:0000aed0       ??$type_case_integer_parse_into_buffer@_K@?$output_processor@_WV?$string_output_adapter@_W@__crt_stdio_output@@V?$standard_base@_WV?$string_output_adapter@_W@__crt_stdio_output@@@2@@__crt_stdio_output@@AEAAX_KI_N@Z 000000018000bed0 f i libucrt:output.obj
 0001:0000af74       ??$write_multiple_characters@V?$stream_output_adapter@D@__crt_stdio_output@@D@__crt_stdio_output@@YAXAEBV?$stream_output_adapter@D@0@DHQEAH@Z 000000018000bf74 f i libucrt:output.obj
 0001:0000b000       ??$write_multiple_characters@V?$stream_output_adapter@_W@__crt_stdio_output@@D@__crt_stdio_output@@YAXAEBV?$stream_output_adapter@_W@0@DHQEAH@Z 000000018000c000 f i libucrt:output.obj
 0001:0000b094       ??$write_multiple_characters@V?$string_output_adapter@_W@__crt_stdio_output@@D@__crt_stdio_output@@YAXAEBV?$string_output_adapter@_W@0@DHQEAH@Z 000000018000c094 f i libucrt:output.obj
 0001:0000b110       ??0_LocaleUpdate@@QEAA@QEAU__crt_locale_pointers@@@Z 000000018000c110 f i libucrt:output.obj
 0001:0000b1ac       ??1_LocaleUpdate@@QEAA@XZ  000000018000c1ac f i libucrt:output.obj
 0001:0000b424       ?crop_zeroes@__crt_stdio_output@@YAXPEADQEAU__crt_locale_pointers@@@Z 000000018000c424 f i libucrt:output.obj
 0001:0000b490       ?force_decimal_point@__crt_stdio_output@@YAXPEADQEAU__crt_locale_pointers@@@Z 000000018000c490 f i libucrt:output.obj
 0001:0000b500       ?parse_int_from_format_string@?$output_processor@DV?$stream_output_adapter@D@__crt_stdio_output@@V?$standard_base@DV?$stream_output_adapter@D@__crt_stdio_output@@@2@@__crt_stdio_output@@AEAA_NQEAH@Z 000000018000c500 f i libucrt:output.obj
 0001:0000b5a4       ?parse_int_from_format_string@?$output_processor@_WV?$string_output_adapter@_W@__crt_stdio_output@@V?$standard_base@_WV?$string_output_adapter@_W@__crt_stdio_output@@@2@@__crt_stdio_output@@AEAA_NQEAH@Z 000000018000c5a4 f i libucrt:output.obj
 0001:0000b5a4       ?parse_int_from_format_string@?$output_processor@_WV?$stream_output_adapter@_W@__crt_stdio_output@@V?$standard_base@_WV?$stream_output_adapter@_W@__crt_stdio_output@@@2@@__crt_stdio_output@@AEAA_NQEAH@Z 000000018000c5a4 f i libucrt:output.obj
 0001:0000b648       ?process@?$output_processor@DV?$stream_output_adapter@D@__crt_stdio_output@@V?$standard_base@DV?$stream_output_adapter@D@__crt_stdio_output@@@2@@__crt_stdio_output@@QEAAHXZ 000000018000c648 f i libucrt:output.obj
 0001:0000b85c       ?process@?$output_processor@_WV?$stream_output_adapter@_W@__crt_stdio_output@@V?$standard_base@_WV?$stream_output_adapter@_W@__crt_stdio_output@@@2@@__crt_stdio_output@@QEAAHXZ 000000018000c85c f i libucrt:output.obj
 0001:0000bab4       ?process@?$output_processor@_WV?$string_output_adapter@_W@__crt_stdio_output@@V?$standard_base@_WV?$string_output_adapter@_W@__crt_stdio_output@@@2@@__crt_stdio_output@@QEAAHXZ 000000018000cab4 f i libucrt:output.obj
 0001:0000bd10       ?state_case_normal@?$output_processor@DV?$stream_output_adapter@D@__crt_stdio_output@@V?$standard_base@DV?$stream_output_adapter@D@__crt_stdio_output@@@2@@__crt_stdio_output@@AEAA_NXZ 000000018000cd10 f i libucrt:output.obj
 0001:0000bd80       ?state_case_normal_tchar@?$output_processor@DV?$stream_output_adapter@D@__crt_stdio_output@@V?$standard_base@DV?$stream_output_adapter@D@__crt_stdio_output@@@2@@__crt_stdio_output@@AEAA_ND@Z 000000018000cd80 f i libucrt:output.obj
 0001:0000be1c       ?state_case_size@?$output_processor@DV?$stream_output_adapter@D@__crt_stdio_output@@V?$standard_base@DV?$stream_output_adapter@D@__crt_stdio_output@@@2@@__crt_stdio_output@@AEAA_NXZ 000000018000ce1c f i libucrt:output.obj
 0001:0000bf90       ?state_case_size@?$output_processor@_WV?$stream_output_adapter@_W@__crt_stdio_output@@V?$standard_base@_WV?$stream_output_adapter@_W@__crt_stdio_output@@@2@@__crt_stdio_output@@AEAA_NXZ 000000018000cf90 f i libucrt:output.obj
 0001:0000c128       ?state_case_size@?$output_processor@_WV?$string_output_adapter@_W@__crt_stdio_output@@V?$standard_base@_WV?$string_output_adapter@_W@__crt_stdio_output@@@2@@__crt_stdio_output@@AEAA_NXZ 000000018000d128 f i libucrt:output.obj
 0001:0000c2c0       ?state_case_type@?$output_processor@DV?$stream_output_adapter@D@__crt_stdio_output@@V?$standard_base@DV?$stream_output_adapter@D@__crt_stdio_output@@@2@@__crt_stdio_output@@AEAA_NXZ 000000018000d2c0 f i libucrt:output.obj
 0001:0000c550       ?state_case_type@?$output_processor@_WV?$stream_output_adapter@_W@__crt_stdio_output@@V?$standard_base@_WV?$stream_output_adapter@_W@__crt_stdio_output@@@2@@__crt_stdio_output@@AEAA_NXZ 000000018000d550 f i libucrt:output.obj
 0001:0000c83c       ?state_case_type@?$output_processor@_WV?$string_output_adapter@_W@__crt_stdio_output@@V?$standard_base@_WV?$string_output_adapter@_W@__crt_stdio_output@@@2@@__crt_stdio_output@@AEAA_NXZ 000000018000d83c f i libucrt:output.obj
 0001:0000cb10       ?type_case_Z@?$output_processor@DV?$stream_output_adapter@D@__crt_stdio_output@@V?$standard_base@DV?$stream_output_adapter@D@__crt_stdio_output@@@2@@__crt_stdio_output@@AEAA_NXZ 000000018000db10 f i libucrt:output.obj
 0001:0000cb88       ?type_case_Z@?$output_processor@_WV?$string_output_adapter@_W@__crt_stdio_output@@V?$standard_base@_WV?$string_output_adapter@_W@__crt_stdio_output@@@2@@__crt_stdio_output@@AEAA_NXZ 000000018000db88 f i libucrt:output.obj
 0001:0000cb88       ?type_case_Z@?$output_processor@_WV?$stream_output_adapter@_W@__crt_stdio_output@@V?$standard_base@_WV?$stream_output_adapter@_W@__crt_stdio_output@@@2@@__crt_stdio_output@@AEAA_NXZ 000000018000db88 f i libucrt:output.obj
 0001:0000cc04       ?type_case_a@?$output_processor@DV?$stream_output_adapter@D@__crt_stdio_output@@V?$standard_base@DV?$stream_output_adapter@D@__crt_stdio_output@@@2@@__crt_stdio_output@@AEAA_NXZ 000000018000dc04 f i libucrt:output.obj
 0001:0000cdc0       ?type_case_a@?$output_processor@_WV?$string_output_adapter@_W@__crt_stdio_output@@V?$standard_base@_WV?$string_output_adapter@_W@__crt_stdio_output@@@2@@__crt_stdio_output@@AEAA_NXZ 000000018000ddc0 f i libucrt:output.obj
 0001:0000cdc0       ?type_case_a@?$output_processor@_WV?$stream_output_adapter@_W@__crt_stdio_output@@V?$standard_base@_WV?$stream_output_adapter@_W@__crt_stdio_output@@@2@@__crt_stdio_output@@AEAA_NXZ 000000018000ddc0 f i libucrt:output.obj
 0001:0000cfa0       ?type_case_c_tchar@?$output_processor@DV?$stream_output_adapter@D@__crt_stdio_output@@V?$standard_base@DV?$stream_output_adapter@D@__crt_stdio_output@@@2@@__crt_stdio_output@@AEAA_ND@Z 000000018000dfa0 f i libucrt:output.obj
 0001:0000d064       ?type_case_c_tchar@?$output_processor@_WV?$stream_output_adapter@_W@__crt_stdio_output@@V?$standard_base@_WV?$stream_output_adapter@_W@__crt_stdio_output@@@2@@__crt_stdio_output@@AEAA_N_W@Z 000000018000e064 f i libucrt:output.obj
 0001:0000d064       ?type_case_c_tchar@?$output_processor@_WV?$string_output_adapter@_W@__crt_stdio_output@@V?$standard_base@_WV?$string_output_adapter@_W@__crt_stdio_output@@@2@@__crt_stdio_output@@AEAA_N_W@Z 000000018000e064 f i libucrt:output.obj
 0001:0000d10c       ?type_case_integer@?$output_processor@DV?$stream_output_adapter@D@__crt_stdio_output@@V?$standard_base@DV?$stream_output_adapter@D@__crt_stdio_output@@@2@@__crt_stdio_output@@AEAA_NI_N@Z 000000018000e10c f i libucrt:output.obj
 0001:0000d2d4       ?type_case_integer@?$output_processor@_WV?$stream_output_adapter@_W@__crt_stdio_output@@V?$standard_base@_WV?$stream_output_adapter@_W@__crt_stdio_output@@@2@@__crt_stdio_output@@AEAA_NI_N@Z 000000018000e2d4 f i libucrt:output.obj
 0001:0000d2d4       ?type_case_integer@?$output_processor@_WV?$string_output_adapter@_W@__crt_stdio_output@@V?$standard_base@_WV?$string_output_adapter@_W@__crt_stdio_output@@@2@@__crt_stdio_output@@AEAA_NI_N@Z 000000018000e2d4 f i libucrt:output.obj
 0001:0000d4a0       ?type_case_n@?$output_processor@DV?$stream_output_adapter@D@__crt_stdio_output@@V?$standard_base@DV?$stream_output_adapter@D@__crt_stdio_output@@@2@@__crt_stdio_output@@AEAA_NXZ 000000018000e4a0 f i libucrt:output.obj
 0001:0000d4a0       ?type_case_n@?$output_processor@_WV?$stream_output_adapter@_W@__crt_stdio_output@@V?$standard_base@_WV?$stream_output_adapter@_W@__crt_stdio_output@@@2@@__crt_stdio_output@@AEAA_NXZ 000000018000e4a0 f i libucrt:output.obj
 0001:0000d4a0       ?type_case_n@?$output_processor@_WV?$string_output_adapter@_W@__crt_stdio_output@@V?$standard_base@_WV?$string_output_adapter@_W@__crt_stdio_output@@@2@@__crt_stdio_output@@AEAA_NXZ 000000018000e4a0 f i libucrt:output.obj
 0001:0000d57c       ?type_case_s@?$output_processor@DV?$stream_output_adapter@D@__crt_stdio_output@@V?$standard_base@DV?$stream_output_adapter@D@__crt_stdio_output@@@2@@__crt_stdio_output@@AEAA_NXZ 000000018000e57c f i libucrt:output.obj
 0001:0000d614       ?type_case_s@?$output_processor@_WV?$stream_output_adapter@_W@__crt_stdio_output@@V?$standard_base@_WV?$stream_output_adapter@_W@__crt_stdio_output@@@2@@__crt_stdio_output@@AEAA_NXZ 000000018000e614 f i libucrt:output.obj
 0001:0000d614       ?type_case_s@?$output_processor@_WV?$string_output_adapter@_W@__crt_stdio_output@@V?$standard_base@_WV?$string_output_adapter@_W@__crt_stdio_output@@@2@@__crt_stdio_output@@AEAA_NXZ 000000018000e614 f i libucrt:output.obj
 0001:0000d6d8       ?validate_stream_is_ansi_if_required@?$__acrt_stdio_char_traits@D@@SA_NQEAU_iobuf@@@Z 000000018000e6d8 f i libucrt:output.obj
 0001:0000d76c       ?write_stored_string_tchar@?$output_processor@DV?$stream_output_adapter@D@__crt_stdio_output@@V?$standard_base@DV?$stream_output_adapter@D@__crt_stdio_output@@@2@@__crt_stdio_output@@AEAA_ND@Z 000000018000e76c f i libucrt:output.obj
 0001:0000d890       ?write_stored_string_tchar@?$output_processor@_WV?$stream_output_adapter@_W@__crt_stdio_output@@V?$standard_base@_WV?$stream_output_adapter@_W@__crt_stdio_output@@@2@@__crt_stdio_output@@AEAA_N_W@Z 000000018000e890 f i libucrt:output.obj
 0001:0000d998       ?write_stored_string_tchar@?$output_processor@_WV?$string_output_adapter@_W@__crt_stdio_output@@V?$standard_base@_WV?$string_output_adapter@_W@__crt_stdio_output@@@2@@__crt_stdio_output@@AEAA_N_W@Z 000000018000e998 f i libucrt:output.obj
 0001:0000da84       ?write_string@?$string_output_adapter@_W@__crt_stdio_output@@QEBAXQEB_WHQEAHAEAV__crt_deferred_errno_cache@@@Z 000000018000ea84 f i libucrt:output.obj
 0001:0000db2c       ?write_string_impl@?$output_adapter_common@DV?$stream_output_adapter@D@__crt_stdio_output@@@__crt_stdio_output@@IEBAXQEBDHQEAHAEAV__crt_deferred_errno_cache@@@Z 000000018000eb2c f i libucrt:output.obj
 0001:0000dc24       ?write_string_impl@?$output_adapter_common@_WV?$stream_output_adapter@_W@__crt_stdio_output@@@__crt_stdio_output@@IEBAXQEB_WHQEAHAEAV__crt_deferred_errno_cache@@@Z 000000018000ec24 f i libucrt:output.obj
 0001:0000dd28       __stdio_common_vfprintf    000000018000ed28 f   libucrt:output.obj
 0001:0000ddb4       __stdio_common_vfwprintf   000000018000edb4 f   libucrt:output.obj
 0001:0000de40       __stdio_common_vswprintf   000000018000ee40 f   libucrt:output.obj
 0001:0000de48       calloc                     000000018000ee48 f   libucrt:calloc.obj
 0001:0000de50       free                       000000018000ee50 f   libucrt:free.obj
 0001:0000de64       _strdup                    000000018000ee64 f   libucrt:strdup.obj
 0001:0000dedc       __ascii_stricmp            000000018000eedc f   libucrt:stricmp.obj
 0001:0000df1c       _stricmp                   000000018000ef1c f   libucrt:stricmp.obj
 0001:0000df64       _stricmp_l                 000000018000ef64 f   libucrt:stricmp.obj
 0001:0000e018       __acrt_initialize_new_handler 000000018000f018 f   libucrt:new_handler.obj
 0001:0000e020       _callnewh                  000000018000f020 f   libucrt:new_handler.obj
 0001:0000e050       _query_new_handler         000000018000f050 f   libucrt:new_handler.obj
 0001:0000e084       _seh_filter_dll            000000018000f084 f   libucrt:exception_filter.obj
 0001:0000e098       _seh_filter_exe            000000018000f098 f   libucrt:exception_filter.obj
 0001:0000e490       __acrt_initialize_thread_local_exit_callback 000000018000f490 f   libucrt:exit.obj
 0001:0000e498       _cexit                     000000018000f498 f   libucrt:exit.obj
 0001:0000e4a8       _exit                      000000018000f4a8 f   libucrt:exit.obj
 0001:0000e4b4       _is_c_termination_complete 000000018000f4b4 f   libucrt:exit.obj
 0001:0000e680       __acrt_allocate_buffer_for_argv 000000018000f680 f   libucrt:argv_parsing.obj
 0001:0000e6e0       _configure_narrow_argv     000000018000f6e0 f   libucrt:argv_parsing.obj
 0001:0000ea58       __dcrt_uninitialize_environments_nolock 000000018000fa58 f   libucrt:environment_initialization.obj
 0001:0000ea90       _initialize_narrow_environment 000000018000fa90 f   libucrt:environment_initialization.obj
 0001:0000ee20       _crt_atexit                000000018000fe20 f   libucrt:onexit.obj
 0001:0000ee30       _execute_onexit_table      000000018000fe30 f   libucrt:onexit.obj
 0001:0000ee6c       _initialize_onexit_table   000000018000fe6c f   libucrt:onexit.obj
 0001:0000eeac       _register_onexit_function  000000018000feac f   libucrt:onexit.obj
 0001:0000ef2c       __acrt_uninitialize_command_line 000000018000ff2c f   libucrt:argv_data.obj
 0001:0000f038       __acrt_initialize          0000000180010038 f   libucrt:initialization.obj
 0001:0000f04c       __acrt_thread_attach       000000018001004c f   libucrt:initialization.obj
 0001:0000f060       __acrt_thread_detach       0000000180010060 f   libucrt:initialization.obj
 0001:0000f070       __acrt_uninitialize        0000000180010070 f   libucrt:initialization.obj
 0001:0000f0a8       __acrt_uninitialize_critical 00000001800100a8 f   libucrt:initialization.obj
 0001:0000f0b8       _initterm                  00000001800100b8 f   libucrt:initterm.obj
 0001:0000f11c       _initterm_e                000000018001011c f   libucrt:initterm.obj
 0001:0000f15c       terminate                  000000018001015c f   libucrt:terminate.obj
 0001:0000f17c       strcpy_s                   000000018001017c f   libucrt:strcpy_s.obj
 0001:0000f1ec       abort                      00000001800101ec f   libucrt:abort.obj
 0001:0000f244       wcsncmp                    0000000180010244 f   libucrt:wcsncmp.obj
 0001:0000f270       ??$parse_integer@KV?$c_string_character_source@D@__crt_strtox@@@__crt_strtox@@YAKQEAU__crt_locale_pointers@@V?$c_string_character_source@D@0@H_N@Z 0000000180010270 f i libucrt:atox.obj
 0001:0000f5ac       ??$parse_integer@KV?$c_string_character_source@_W@__crt_strtox@@@__crt_strtox@@YAKQEAU__crt_locale_pointers@@V?$c_string_character_source@_W@0@H_N@Z 00000001800105ac f i libucrt:atox.obj
 0001:0000fc70       strncmp                    0000000180010c70 f   libucrt:strncmp.obj
 0001:0000fcf0       __acrt_call_reportfault    0000000180010cf0 f   libucrt:invalid_parameter.obj
 0001:0000fe4c       __acrt_initialize_invalid_parameter_handler 0000000180010e4c f   libucrt:invalid_parameter.obj
 0001:0000fe54       _invalid_parameter         0000000180010e54 f   libucrt:invalid_parameter.obj
 0001:0000ff04       _invalid_parameter_noinfo  0000000180010f04 f   libucrt:invalid_parameter.obj
 0001:0000ff24       _invoke_watson             0000000180010f24 f   libucrt:invalid_parameter.obj
 0001:0000ff6c       _query_app_type            0000000180010f6c f   libucrt:report_runtime_error.obj
 0001:0000ff74       __acrt_errno_from_os_error 0000000180010f74 f   libucrt:errno.obj
 0001:0000ffbc       __acrt_errno_map_os_error  0000000180010fbc f   libucrt:errno.obj
 0001:0001000c       __doserrno                 000000018001100c f   libucrt:errno.obj
 0001:0001002c       _errno                     000000018001102c f   libucrt:errno.obj
 0001:0001017c       _itow_s                    000000018001117c f   libucrt:xtoa.obj
 0001:0001019c       _set_error_mode            000000018001119c f   libucrt:set_error_mode.obj
 0001:000101dc       wcscat_s                   00000001800111dc f   libucrt:wcscat_s.obj
 0001:00010268       wcscpy_s                   0000000180011268 f   libucrt:wcscpy_s.obj
 0001:000102e0       wcsncat_s                  00000001800112e0 f   libucrt:wcsncat_s.obj
 0001:000103f4       __acrt_GetModuleFileNameA  00000001800113f4 f   libucrt:getmodulefilenamea.obj
 0001:00010470       __acrt_show_wide_message_box 0000000180011470 f   libucrt:crtmbox.obj
 0001:00010730       __acrt_stdio_flush_nolock  0000000180011730 f   libucrt:fflush.obj
 0001:000107ac       _fflush_nolock             00000001800117ac f   libucrt:fflush.obj
 0001:000107f8       _flushall                  00000001800117f8 f   libucrt:fflush.obj
 0001:00010800       fflush                     0000000180011800 f   libucrt:fflush.obj
 0001:00010998       setvbuf                    0000000180011998 f   libucrt:setvbuf.obj
 0001:00010a7c       __acrt_get_sigabrt_handler 0000000180011a7c f   libucrt:signal.obj
 0001:00010aac       __acrt_initialize_signal_handlers 0000000180011aac f   libucrt:signal.obj
 0001:00010acc       raise                      0000000180011acc f   libucrt:signal.obj
 0001:00010d4c       _malloc_base               0000000180011d4c f   libucrt:malloc_base.obj
 0001:00010dac       _calloc_base               0000000180011dac f   libucrt:calloc_base.obj
 0001:00010e24       _free_base                 0000000180011e24 f   libucrt:free_base.obj
 0001:0001103c       __acrt_AppPolicyGetProcessTerminationMethodInternal 000000018001203c f   libucrt:winapi_thunks.obj
 0001:0001108c       __acrt_AppPolicyGetShowDeveloperDiagnosticInternal 000000018001208c f   libucrt:winapi_thunks.obj
 0001:000110dc       __acrt_AppPolicyGetWindowingModelInternal 00000001800120dc f   libucrt:winapi_thunks.obj
 0001:0001112c       __acrt_FlsAlloc            000000018001212c f   libucrt:winapi_thunks.obj
 0001:00011174       __acrt_FlsFree             0000000180012174 f   libucrt:winapi_thunks.obj
 0001:000111bc       __acrt_FlsGetValue         00000001800121bc f   libucrt:winapi_thunks.obj
 0001:00011204       __acrt_FlsSetValue         0000000180012204 f   libucrt:winapi_thunks.obj
 0001:00011258       __acrt_InitializeCriticalSectionEx 0000000180012258 f   libucrt:winapi_thunks.obj
 0001:000112bc       __acrt_LCMapStringEx       00000001800122bc f   libucrt:winapi_thunks.obj
 0001:00011398       __acrt_LocaleNameToLCID    0000000180012398 f   libucrt:winapi_thunks.obj
 0001:000113e8       __acrt_MessageBoxW         00000001800123e8 f   libucrt:winapi_thunks.obj
 0001:0001145c       __acrt_can_show_message_box 000000018001245c f   libucrt:winapi_thunks.obj
 0001:000114cc       __acrt_get_parent_window   00000001800124cc f   libucrt:winapi_thunks.obj
 0001:00011548       __acrt_initialize_winapi_thunks 0000000180012548 f   libucrt:winapi_thunks.obj
 0001:00011590       __acrt_is_interactive      0000000180012590 f   libucrt:winapi_thunks.obj
 0001:00011658       __acrt_uninitialize_winapi_thunks 0000000180012658 f   libucrt:winapi_thunks.obj
 0001:0001169c       _fcloseall                 000000018001269c f   libucrt:closeall.obj
 0001:00011750       __acrt_stdio_free_buffer_nolock 0000000180012750 f   libucrt:_freebuf.obj
 0001:00011978       __acrt_initialize_lowio    0000000180012978 f   libucrt:ioinit.obj
 0001:000119b4       __acrt_uninitialize_lowio  00000001800129b4 f   libucrt:ioinit.obj
 0001:000119f4       isdigit                    00000001800129f4 f i libucrt:_ctype.obj
 0001:00011abc       _tolower_l                 0000000180012abc f   libucrt:tolower_toupper.obj
 0001:00011bfc       tolower                    0000000180012bfc f   libucrt:tolower_toupper.obj
 0001:00011c28       strtol                     0000000180012c28 f   libucrt:strtox.obj
 0001:00011c54       wcstol                     0000000180012c54 f   libucrt:strtox.obj
 0001:00011c80       _mbtowc_l                  0000000180012c80 f   libucrt:mbtowc.obj
 0001:00011dfc       mbtowc                     0000000180012dfc f   libucrt:mbtowc.obj
 0001:00011e04       _wctomb_s_l                0000000180012e04 f   libucrt:wctomb.obj
 0001:00011f88       wctomb_s                   0000000180012f88 f   libucrt:wctomb.obj
 0001:00011f9c       strnlen                    0000000180012f9c f   libucrt:strnlen.obj
 0001:000120ec       wcsnlen                    00000001800130ec f   libucrt:strnlen.obj
 0001:0001263c       __acrt_freeptd             000000018001363c f   libucrt:per_thread_data.obj
 0001:00012680       __acrt_getptd              0000000180013680 f   libucrt:per_thread_data.obj
 0001:00012744       __acrt_getptd_head         0000000180013744 f   libucrt:per_thread_data.obj
 0001:000127ec       __acrt_getptd_noexit       00000001800137ec f   libucrt:per_thread_data.obj
 0001:000128a4       __acrt_initialize_ptd      00000001800138a4 f   libucrt:per_thread_data.obj
 0001:000128e0       __acrt_uninitialize_ptd    00000001800138e0 f   libucrt:per_thread_data.obj
 0001:00012904       __acrt_update_locale_info  0000000180013904 f   libucrt:locale_update.obj
 0001:00012938       __acrt_update_multibyte_info 0000000180013938 f   libucrt:locale_update.obj
 0001:0001333c       __acrt_fp_format           000000018001433c f   libucrt:cvt.obj
 0001:000135c4       _fputwc_nolock             00000001800145c4 f   libucrt:fputwc.obj
 0001:0001373c       _fileno                    000000018001473c f   libucrt:fileno.obj
 0001:00013764       _fputc_nolock              0000000180014764 f   libucrt:fputc.obj
 0001:0001377c       _get_printf_count_output   000000018001477c f   libucrt:printf_count_output.obj
 0001:00013794       __acrt_stdio_begin_temporary_buffering_nolock 0000000180014794 f   libucrt:_sftbuf.obj
 0001:00013864       __acrt_stdio_end_temporary_buffering_nolock 0000000180014864 f   libucrt:_sftbuf.obj
 0001:00013910       __acrt_set_locale_changed  0000000180014910 f   libucrt:wsetlocale.obj
 0001:0001391c       __acrt_uninitialize_locale 000000018001491c f   libucrt:wsetlocale.obj
 0001:0001394c       __acrt_initialize_locks    000000018001494c f   libucrt:locks.obj
 0001:00013994       __acrt_lock                0000000180014994 f   libucrt:locks.obj
 0001:000139b0       __acrt_uninitialize_locks  00000001800149b0 f   libucrt:locks.obj
 0001:000139e8       __acrt_unlock              00000001800149e8 f   libucrt:locks.obj
 0001:00013a04       __acrt_get_developer_information_policy 0000000180014a04 f   libucrt:win_policies.obj
 0001:00013a58       __acrt_get_process_end_policy 0000000180014a58 f   libucrt:win_policies.obj
 0001:00013a94       __acrt_get_windowing_model_policy 0000000180014a94 f   libucrt:win_policies.obj
 0001:00014068       __acrt_expand_narrow_argv_wildcards 0000000180015068 f   libucrt:argv_wildcards.obj
 0001:0001479c       __acrt_initialize_multibyte 000000018001579c f   libucrt:mbctype.obj
 0001:000147fc       __acrt_update_thread_multibyte_data 00000001800157fc f   libucrt:mbctype.obj
 0001:00014818       _setmbcp_nolock            0000000180015818 f   libucrt:mbctype.obj
 0001:00014b48       _ismbblead                 0000000180015b48 f   libucrt:ismbbyte.obj
 0001:00014b5c       __acrt_initialize_command_line 0000000180015b5c f   libucrt:argv_data.obj
 0001:00014b84       __acrt_MultiByteToWideChar 0000000180015b84 f   libucrt:multibytetowidechar.obj
 0001:00014be0       __acrt_WideCharToMultiByte 0000000180015be0 f   libucrt:widechartomultibyte.obj
 0001:00014c78       __dcrt_get_narrow_environment_from_os 0000000180015c78 f   libucrt:get_environment_from_os.obj
 0001:00014d7c       _recalloc                  0000000180015d7c f   libucrt:recalloc.obj
 0001:00014d84       _recalloc_base             0000000180015d84 f   libucrt:recalloc.obj
 0001:00014e1c       __acrt_initialize_heap     0000000180015e1c f   libucrt:heap_handle.obj
 0001:00014e38       __acrt_uninitialize_heap   0000000180015e38 f   libucrt:heap_handle.obj
 0001:00014e44       __acrt_execute_initializers 0000000180015e44 f   libucrt:shared_initialization.obj
 0001:00014ec4       __acrt_execute_uninitializers 0000000180015ec4 f   libucrt:shared_initialization.obj
 0001:00014f00       __acrt_has_user_matherr    0000000180015f00 f   libucrt:matherr.obj
 0001:00014f20       __acrt_initialize_user_matherr 0000000180015f20 f   libucrt:matherr.obj
 0001:00014f28       __acrt_invoke_user_matherr 0000000180015f28 f   libucrt:matherr.obj
 0001:00014f58       __pctype_func              0000000180015f58 f   libucrt:ctype.obj
 0001:00014f88       iswctype                   0000000180015f88 f   libucrt:iswctype.obj
 0001:00014ff8       _isctype_l                 0000000180015ff8 f   libucrt:isctype.obj
 0001:00015310       _mbstowcs_l                0000000180016310 f   libucrt:mbstowcs.obj
 0001:00015318       mbstowcs                   0000000180016318 f   libucrt:mbstowcs.obj
 0001:000153c0       _commit                    00000001800163c0 f   libucrt:commit.obj
 0001:000159fc       _write                     00000001800169fc f   libucrt:write.obj
 0001:00015ae8       _write_nolock              0000000180016ae8 f   libucrt:write.obj
 0001:00015dc8       _query_new_mode            0000000180016dc8 f   libucrt:new_mode.obj
 0001:00015eb8       __acrt_DownlevelLocaleNameToLCID 0000000180016eb8 f   libucrt:lcidtoname_downlevel.obj
 0001:00015eec       _fclose_nolock             0000000180016eec f   libucrt:fclose.obj
 0001:00015f70       fclose                     0000000180016f70 f   libucrt:fclose.obj
 0001:00015fd4       __acrt_lowio_create_handle_array 0000000180016fd4 f   libucrt:osfinfo.obj
 0001:0001606c       __acrt_lowio_destroy_handle_array 000000018001706c f   libucrt:osfinfo.obj
 0001:000160bc       __acrt_lowio_ensure_fh_exists 00000001800170bc f   libucrt:osfinfo.obj
 0001:00016164       __acrt_lowio_lock_fh       0000000180017164 f   libucrt:osfinfo.obj
 0001:00016188       __acrt_lowio_unlock_fh     0000000180017188 f   libucrt:osfinfo.obj
 0001:000161ac       _free_osfhnd               00000001800171ac f   libucrt:osfinfo.obj
 0001:00016268       _get_osfhandle             0000000180017268 f   libucrt:osfinfo.obj
 0001:000162e0       _isleadbyte_l              00000001800172e0 f i libucrt:_wctype.obj
 0001:00016638       __acrt_LCMapStringA        0000000180017638 f   libucrt:lcmapstringa.obj
 0001:000166d0       ?__mbrtowc_utf8@__crt_mbstring@@YA_KPEA_WPEBD_KPEAU_Mbstatet@@@Z 00000001800176d0 f   libucrt:mbrtowc.obj
 0001:0001670c       ?__mbsrtowcs_utf8@__crt_mbstring@@YA_KPEA_WPEAPEBD_KPEAU_Mbstatet@@@Z 000000018001770c f   libucrt:mbrtowc.obj
 0001:00016884       __acrt_add_locale_ref      0000000180017884 f   libucrt:locale_refcounting.obj
 0001:00016910       __acrt_free_locale         0000000180017910 f   libucrt:locale_refcounting.obj
 0001:00016a88       __acrt_locale_add_lc_time_reference 0000000180017a88 f   libucrt:locale_refcounting.obj
 0001:00016ab0       __acrt_locale_free_lc_time_if_unreferenced 0000000180017ab0 f   libucrt:locale_refcounting.obj
 0001:00016ae8       __acrt_locale_release_lc_time_reference 0000000180017ae8 f   libucrt:locale_refcounting.obj
 0001:00016b10       __acrt_release_locale_ref  0000000180017b10 f   libucrt:locale_refcounting.obj
 0001:00016bb8       __acrt_update_thread_locale_data 0000000180017bb8 f   libucrt:locale_refcounting.obj
 0001:00016c28       _updatetlocinfoEx_nolock   0000000180017c28 f   libucrt:locale_refcounting.obj
 0001:00016c90       __acrt_fp_strflt_to_string 0000000180017c90 f   libucrt:_fptostr.obj
 0001:00016d80       ?divide@__crt_strtox@@YA_KAEAUbig_integer@1@AEBU21@@Z 0000000180017d80 f i libucrt:cfout.obj
 0001:00017210       __acrt_fltout              0000000180018210 f   libucrt:cfout.obj
 0001:00018734       __acrt_stdio_flush_and_write_narrow_nolock 0000000180019734 f   libucrt:_flsbuf.obj
 0001:0001881c       __acrt_stdio_flush_and_write_wide_nolock 000000018001981c f   libucrt:_flsbuf.obj
 0001:00018908       _isatty                    0000000180019908 f   libucrt:isatty.obj
 0001:00018968       __acrt_locale_free_monetary 0000000180019968 f   libucrt:initmon.obj
 0001:00018a74       __acrt_locale_free_numeric 0000000180019a74 f   libucrt:initnum.obj
 0001:00018b34       __acrt_locale_free_time    0000000180019b34 f   libucrt:inittime.obj
 0001:00018c3c       __acrt_GetStringTypeA      0000000180019c3c f   libucrt:getstringtypea.obj
 0001:00018dd0       qsort                      0000000180019dd0 f   libucrt:qsort.obj
 0001:00019180       strncpy_s                  000000018001a180 f   libucrt:strncpy_s.obj
 0001:00019310       strpbrk                    000000018001a310 f   libucrt:strpbrk.obj
 0001:000196f0       ??$__acrt_convert_wcs_mbs@D_W$$A6A_KPEA_WPEBD_KPEAU__crt_locale_pointers@@@ZU__crt_win32_buffer_internal_dynamic_resizing@@@@YAHQEBDAEAV?$__crt_win32_buffer@_WU__crt_win32_buffer_internal_dynamic_resizing@@@@A6A_KPEA_WPEBD_KPEAU__crt_locale_pointers@@@Z5@Z 000000018001a6f0 f i libucrt:findfirstfileexa.obj
 0001:000197f8       __acrt_FindFirstFileExA    000000018001a7f8 f   libucrt:findfirstfileexa.obj
 0001:0001989c       ??$__acrt_convert_wcs_mbs@_WD$$A6A_KPEADPEB_W_KPEAU__crt_locale_pointers@@@ZU__crt_win32_buffer_no_resizing@@@@YAHQEB_WAEAV?$__crt_win32_buffer@DU__crt_win32_buffer_no_resizing@@@@A6A_KPEADPEB_W_KPEAU__crt_locale_pointers@@@Z5@Z 000000018001a89c f i libucrt:findnextfilea.obj
 0001:00019968       __acrt_FindNextFileA       000000018001a968 f   libucrt:findnextfilea.obj
 0001:00019a9c       _mbsdec                    000000018001aa9c f   libucrt:mbsdec.obj
 0001:00019aa4       _mbsdec_l                  000000018001aaa4 f   libucrt:mbsdec.obj
 0001:00019b50       _msize                     000000018001ab50 f   libucrt:msize.obj
 0001:00019b58       _msize_base                000000018001ab58 f   libucrt:msize.obj
 0001:00019b94       _realloc_base              000000018001ab94 f   libucrt:realloc_base.obj
 0001:00019c10       __acrt_GetStringTypeW      000000018001ac10 f   libucrt:getstringtypew.obj
 0001:00019da4       _lseeki64                  000000018001ada4 f   libucrt:lseek.obj
 0001:00019dac       _lseeki64_nolock           000000018001adac f   libucrt:lseek.obj
 0001:00019db4       _putwch_nolock             000000018001adb4 f   libucrt:putwch.obj
 0001:00019e64       _close                     000000018001ae64 f   libucrt:close.obj
 0001:00019f08       _close_nolock              000000018001af08 f   libucrt:close.obj
 0001:00019fc4       ?__acrt_stdio_free_stream@@YAXV__crt_stdio_stream@@@Z 000000018001afc4 f   libucrt:stream.obj
 0001:00019fe0       __strncnt                  000000018001afe0 f   libucrt:strncnt.obj
 0001:00019ff8       ?__mbrtoc32_utf8@__crt_mbstring@@YA_KPEA_UPEBD_KPEAU_Mbstatet@@@Z 000000018001aff8 f   libucrt:mbrtoc32.obj
 0001:0001a1d4       fegetenv                   000000018001b1d4 f   libucrt:fegetenv.obj
 0001:0001a1f4       fesetenv                   000000018001b1f4 f   libucrt:fesetenv.obj
 0001:0001a244       feholdexcept               000000018001b244 f   libucrt:feholdexcept.obj
 0001:0001a294       ceil                       000000018001b294 f   libucrt:ceil.obj
 0001:0001a360       log10                      000000018001b360 f   libucrt:log10.obj
 0001:0001a90c       __acrt_stdio_allocate_buffer_nolock 000000018001b90c f   libucrt:_getbuf.obj
 0001:0001acdc       _wcstombs_l                000000018001bcdc f   libucrt:wcstombs.obj
 0001:0001ace4       __dcrt_lowio_ensure_console_output_initialized 000000018001bce4 f   libucrt:initcon.obj
 0001:0001ad38       __dcrt_terminate_console_output 000000018001bd38 f   libucrt:initcon.obj
 0001:0001ad54       __dcrt_write_console       000000018001bd54 f   libucrt:initcon.obj
 0001:0001ae14       __acrt_fenv_get_control    000000018001be14 f   libucrt:_fenvutils.obj
 0001:0001af14       __acrt_fenv_get_status     000000018001bf14 f   libucrt:_fenvutils.obj
 0001:0001af6c       __acrt_fenv_set_control    000000018001bf6c f   libucrt:_fenvutils.obj
 0001:0001b0b4       __acrt_fenv_set_status     000000018001c0b4 f   libucrt:_fenvutils.obj
 0001:0001b138       _clearfp                   000000018001c138 f   libucrt:ieee.obj
 0001:0001b2cc       _handle_error              000000018001c2cc f   libucrt:libm_error.obj
 0001:0001b3f4       _handle_nan                000000018001c3f4 f   libucrt:libm_error.obj
 0001:0001b410       __acrt_initialize_fma3     000000018001c410 f   libucrt:fma3_available.obj
 0001:0001b480       _log10_special             000000018001c480 f   libucrt:log_special.obj
 0001:0001b538       ?__wcsrtombs_utf8@__crt_mbstring@@YA_KPEADPEAPEB_W_KPEAU_Mbstatet@@@Z 000000018001c538 f   libucrt:wcrtomb.obj
 0001:0001b670       _get_fpsr                  000000018001c670 f   libucrt:fpsr.obj
 0001:0001b680       _set_fpsr                  000000018001c680 f   libucrt:fpsr.obj
 0001:0001b68a       _fclrf                     000000018001c68a f   libucrt:fpsr.obj
 0001:0001b69e       _frnd                      000000018001c69e f   libucrt:fpsr.obj
 0001:0001b6c0       _raise_exc                 000000018001c6c0 f   libucrt:fpexcept.obj
 0001:0001b6e8       _raise_exc_ex              000000018001c6e8 f   libucrt:fpexcept.obj
 0001:0001b9f8       _set_errno_from_matherr    000000018001c9f8 f   libucrt:fpexcept.obj
 0001:0001ba28       _clrfp                     000000018001ca28 f   libucrt:fpctrl.obj
 0001:0001ba48       _ctrlfp                    000000018001ca48 f   libucrt:fpctrl.obj
 0001:0001bac4       _set_statfp                000000018001cac4 f   libucrt:fpctrl.obj
 0001:0001bae4       _statfp                    000000018001cae4 f   libucrt:fpctrl.obj
 0001:0001baf8       ?__c16rtomb_utf8@__crt_mbstring@@YA_KPEAD_SPEAU_Mbstatet@@@Z 000000018001caf8 f   libucrt:c16rtomb.obj
 0001:0001bba0       ?__c32rtomb_utf8@__crt_mbstring@@YA_KPEAD_UPEAU_Mbstatet@@@Z 000000018001cba0 f   libucrt:c32rtomb.obj
 0001:0001bc58       c32rtomb                   000000018001cc58 f   libucrt:c32rtomb.obj
 0001:0001bc5d       IsProcessorFeaturePresent  000000018001cc5d f   kernel32:KERNEL32.dll
 0001:0001bc64       ?DloadAcquireSectionWriteAccess@@YAXXZ 000000018001cc64 f i DelayImp:delayhlp.obj
 0001:0001bd10       ?DloadGetSRWLockFunctionPointers@@YAEXZ 000000018001cd10 f i DelayImp:delayhlp.obj
 0001:0001bdac       ?DloadMakePermanentImageCommit@@YAXPEAX_K@Z 000000018001cdac f i DelayImp:delayhlp.obj
 0001:0001be44       ?DloadObtainSection@@YAPEAXPEAK0@Z 000000018001ce44 f i DelayImp:delayhlp.obj
 0001:0001bee0       ?DloadProtectSection@@YAXKPEAK@Z 000000018001cee0 f i DelayImp:delayhlp.obj
 0001:0001bf70       ?DloadReleaseSectionWriteAccess@@YAXXZ 000000018001cf70 f i DelayImp:delayhlp.obj
 0001:0001c004       __delayLoadHelper2         000000018001d004 f   DelayImp:delayhlp.obj
 0001:0001c2d0       _FindPESection             000000018001d2d0 f   LIBCMT:pesect.obj
 0001:0001c320       _IsNonwritableInCurrentImage 000000018001d320 f   LIBCMT:pesect.obj
 0001:0001c370       _ValidateImageBase         000000018001d370 f   LIBCMT:pesect.obj
 0001:0001c3a0       __GSHandlerCheck           000000018001d3a0 f   LIBCMT:_gshandler_.obj
 0001:0001c3c0       __GSHandlerCheckCommon     000000018001d3c0 f   LIBCMT:_gshandler_.obj
 0001:0001c430       __chkstk                   000000018001d430 f   LIBCMT:_chkstk_.obj
 0001:0001c430       _alloca_probe              000000018001d430 f   LIBCMT:_chkstk_.obj
 0001:0001c484       __GSHandlerCheck_EH        000000018001d484 f   LIBCMT:gshandlereh.obj
 0001:0001c504       strrchr                    000000018001d504 f   libvcruntime:strrchr.obj
 0001:0001c660       memcmp                     000000018001d660 f   libvcruntime:memcmp.obj
 0001:0001c740       _guard_dispatch_icall_nop  000000018001d740 f   LIBCMT:_guard_dispatch_.obj
 0002:00000000       __imp_GetLastError         000000018001e000     kernel32:KERNEL32.dll
 0002:00000008       __imp_LoadLibraryA         000000018001e008     kernel32:KERNEL32.dll
 0002:00000010       __imp_GetProcAddress       000000018001e010     kernel32:KERNEL32.dll
 0002:00000018       __imp_GetModuleHandleA     000000018001e018     kernel32:KERNEL32.dll
 0002:00000020       __imp_LoadLibraryExA       000000018001e020     kernel32:KERNEL32.dll
 0002:00000028       __imp_RtlCaptureContext    000000018001e028     kernel32:KERNEL32.dll
 0002:00000030       __imp_RtlLookupFunctionEntry 000000018001e030     kernel32:KERNEL32.dll
 0002:00000038       __imp_RtlVirtualUnwind     000000018001e038     kernel32:KERNEL32.dll
 0002:00000040       __imp_UnhandledExceptionFilter 000000018001e040     kernel32:KERNEL32.dll
 0002:00000048       __imp_SetUnhandledExceptionFilter 000000018001e048     kernel32:KERNEL32.dll
 0002:00000050       __imp_GetCurrentProcess    000000018001e050     kernel32:KERNEL32.dll
 0002:00000058       __imp_TerminateProcess     000000018001e058     kernel32:KERNEL32.dll
 0002:00000060       __imp_IsProcessorFeaturePresent 000000018001e060     kernel32:KERNEL32.dll
 0002:00000068       __imp_IsDebuggerPresent    000000018001e068     kernel32:KERNEL32.dll
 0002:00000070       __imp_GetStartupInfoW      000000018001e070     kernel32:KERNEL32.dll
 0002:00000078       __imp_GetModuleHandleW     000000018001e078     kernel32:KERNEL32.dll
 0002:00000080       __imp_QueryPerformanceCounter 000000018001e080     kernel32:KERNEL32.dll
 0002:00000088       __imp_GetCurrentProcessId  000000018001e088     kernel32:KERNEL32.dll
 0002:00000090       __imp_GetCurrentThreadId   000000018001e090     kernel32:KERNEL32.dll
 0002:00000098       __imp_GetSystemTimeAsFileTime 000000018001e098     kernel32:KERNEL32.dll
 0002:000000a0       __imp_InitializeSListHead  000000018001e0a0     kernel32:KERNEL32.dll
 0002:000000a8       __imp_RtlUnwindEx          000000018001e0a8     kernel32:KERNEL32.dll
 0002:000000b0       __imp_RtlPcToFileHeader    000000018001e0b0     kernel32:KERNEL32.dll
 0002:000000b8       __imp_RaiseException       000000018001e0b8     kernel32:KERNEL32.dll
 0002:000000c0       __imp_InterlockedFlushSList 000000018001e0c0     kernel32:KERNEL32.dll
 0002:000000c8       __imp_SetLastError         000000018001e0c8     kernel32:KERNEL32.dll
 0002:000000d0       __imp_EnterCriticalSection 000000018001e0d0     kernel32:KERNEL32.dll
 0002:000000d8       __imp_LeaveCriticalSection 000000018001e0d8     kernel32:KERNEL32.dll
 0002:000000e0       __imp_DeleteCriticalSection 000000018001e0e0     kernel32:KERNEL32.dll
 0002:000000e8       __imp_InitializeCriticalSectionAndSpinCount 000000018001e0e8     kernel32:KERNEL32.dll
 0002:000000f0       __imp_TlsAlloc             000000018001e0f0     kernel32:KERNEL32.dll
 0002:000000f8       __imp_TlsGetValue          000000018001e0f8     kernel32:KERNEL32.dll
 0002:00000100       __imp_TlsSetValue          000000018001e100     kernel32:KERNEL32.dll
 0002:00000108       __imp_TlsFree              000000018001e108     kernel32:KERNEL32.dll
 0002:00000110       __imp_FreeLibrary          000000018001e110     kernel32:KERNEL32.dll
 0002:00000118       __imp_LoadLibraryExW       000000018001e118     kernel32:KERNEL32.dll
 0002:00000120       __imp_EncodePointer        000000018001e120     kernel32:KERNEL32.dll
 0002:00000128       __imp_GetStdHandle         000000018001e128     kernel32:KERNEL32.dll
 0002:00000130       __imp_GetFileType          000000018001e130     kernel32:KERNEL32.dll
 0002:00000138       __imp_GetModuleFileNameW   000000018001e138     kernel32:KERNEL32.dll
 0002:00000140       __imp_GetModuleHandleExW   000000018001e140     kernel32:KERNEL32.dll
 0002:00000148       __imp_WriteConsoleW        000000018001e148     kernel32:KERNEL32.dll
 0002:00000150       __imp_ExitProcess          000000018001e150     kernel32:KERNEL32.dll
 0002:00000158       __imp_WriteFile            000000018001e158     kernel32:KERNEL32.dll
 0002:00000160       __imp_OutputDebugStringW   000000018001e160     kernel32:KERNEL32.dll
 0002:00000168       __imp_HeapAlloc            000000018001e168     kernel32:KERNEL32.dll
 0002:00000170       __imp_HeapFree             000000018001e170     kernel32:KERNEL32.dll
 0002:00000178       __imp_LCMapStringW         000000018001e178     kernel32:KERNEL32.dll
 0002:00000180       __imp_FindClose            000000018001e180     kernel32:KERNEL32.dll
 0002:00000188       __imp_FindFirstFileExW     000000018001e188     kernel32:KERNEL32.dll
 0002:00000190       __imp_FindNextFileW        000000018001e190     kernel32:KERNEL32.dll
 0002:00000198       __imp_IsValidCodePage      000000018001e198     kernel32:KERNEL32.dll
 0002:000001a0       __imp_GetACP               000000018001e1a0     kernel32:KERNEL32.dll
 0002:000001a8       __imp_GetOEMCP             000000018001e1a8     kernel32:KERNEL32.dll
 0002:000001b0       __imp_GetCPInfo            000000018001e1b0     kernel32:KERNEL32.dll
 0002:000001b8       __imp_GetCommandLineA      000000018001e1b8     kernel32:KERNEL32.dll
 0002:000001c0       __imp_GetCommandLineW      000000018001e1c0     kernel32:KERNEL32.dll
 0002:000001c8       __imp_MultiByteToWideChar  000000018001e1c8     kernel32:KERNEL32.dll
 0002:000001d0       __imp_WideCharToMultiByte  000000018001e1d0     kernel32:KERNEL32.dll
 0002:000001d8       __imp_GetEnvironmentStringsW 000000018001e1d8     kernel32:KERNEL32.dll
 0002:000001e0       __imp_FreeEnvironmentStringsW 000000018001e1e0     kernel32:KERNEL32.dll
 0002:000001e8       __imp_GetProcessHeap       000000018001e1e8     kernel32:KERNEL32.dll
 0002:000001f0       __imp_FlushFileBuffers     000000018001e1f0     kernel32:KERNEL32.dll
 0002:000001f8       __imp_GetConsoleCP         000000018001e1f8     kernel32:KERNEL32.dll
 0002:00000200       __imp_GetConsoleMode       000000018001e200     kernel32:KERNEL32.dll
 0002:00000208       __imp_SetStdHandle         000000018001e208     kernel32:KERNEL32.dll
 0002:00000210       __imp_GetStringTypeW       000000018001e210     kernel32:KERNEL32.dll
 0002:00000218       __imp_HeapSize             000000018001e218     kernel32:KERNEL32.dll
 0002:00000220       __imp_HeapReAlloc          000000018001e220     kernel32:KERNEL32.dll
 0002:00000228       __imp_SetFilePointerEx     000000018001e228     kernel32:KERNEL32.dll
 0002:00000230       __imp_CloseHandle          000000018001e230     kernel32:KERNEL32.dll
 0002:00000238       __imp_CreateFileW          000000018001e238     kernel32:KERNEL32.dll
 0002:00000240       __imp_GetSystemInfo        000000018001e240     kernel32:KERNEL32.dll
 0002:00000248       __imp_VirtualProtect       000000018001e248     kernel32:KERNEL32.dll
 0002:00000250       __imp_VirtualQuery         000000018001e250     kernel32:KERNEL32.dll
 0002:00000258       \177KERNEL32_NULL_THUNK_DATA 000000018001e258     kernel32:KERNEL32.dll
 0002:00000260       __guard_check_icall_fptr   000000018001e260     LIBCMT:guard_support.obj
 0002:00000268       __guard_dispatch_icall_fptr 000000018001e268     LIBCMT:guard_support.obj
 0002:00000270       __xc_a                     000000018001e270     LIBCMT:initializers.obj
 0002:000002a0       _register_kerberos_        000000018001e2a0     kerberos.obj
 0002:000002a8       __xc_z                     000000018001e2a8     LIBCMT:initializers.obj
 0002:000002b0       __xi_a                     000000018001e2b0     LIBCMT:initializers.obj
 0002:000002b8       __acrt_stdio_initializer   000000018001e2b8     libucrt:stdio_initializer.obj
 0002:000002c0       __acrt_multibyte_initializer 000000018001e2c0     libucrt:multibyte_initializer.obj
 0002:000002c8       __acrt_tran_fma3_initializer 000000018001e2c8     libucrt:fma3_initializer.obj
 0002:000002d0       __xi_z                     000000018001e2d0     LIBCMT:initializers.obj
 0002:000002d8       __xp_a                     000000018001e2d8     LIBCMT:initializers.obj
 0002:000002e0       __acrt_locale_terminator   000000018001e2e0     libucrt:locale_initializer.obj
 0002:000002e8       __dcrt_console_output_terminator 000000018001e2e8     libucrt:console_output_initializer.obj
 0002:000002f0       __acrt_stdio_terminator    000000018001e2f0     libucrt:stdio_initializer.obj
 0002:000002f8       __xp_z                     000000018001e2f8     LIBCMT:initializers.obj
 0002:00000300       __xt_a                     000000018001e300     LIBCMT:initializers.obj
 0002:00000308       __xt_z                     000000018001e308     LIBCMT:initializers.obj
 0002:00000310       __sz_node_exe              000000018001e310     node:node.exe
 0002:00000320       _pRawDllMain               000000018001e320     LIBCMT:dll_dllmain.obj
 0002:00000320       _pDefaultRawDllMain        000000018001e320     LIBCMT:dll_dllmain.obj
 0002:00000340       ??_7exception@std@@6B@     000000018001e340     LIBCMT:throw_bad_alloc.obj
 0002:00000350       ??_C@_0BC@EOODALEL@Unknown?5exception@ 000000018001e350     LIBCMT:throw_bad_alloc.obj
 0002:00000370       ??_7bad_alloc@std@@6B@     000000018001e370     LIBCMT:throw_bad_alloc.obj
 0002:00000380       ??_C@_0P@GHFPNOJB@bad?5allocation@ 000000018001e380     LIBCMT:throw_bad_alloc.obj
 0002:00000398       ??_7bad_array_new_length@std@@6B@ 000000018001e398     LIBCMT:throw_bad_alloc.obj
 0002:000003a8       ??_C@_0BF@KINCDENJ@bad?5array?5new?5length@ 000000018001e3a8     LIBCMT:throw_bad_alloc.obj
 0002:000003c8       ??_7type_info@@6B@         000000018001e3c8     LIBCMT:std_type_info_static.obj
 0002:00000428       ??_C@_1DM@KHCHBNEB@?$AAa?$AAp?$AAi?$AA?9?$AAm?$AAs?$AA?9?$AAw?$AAi?$AAn?$AA?9?$AAc?$AAo?$AAr?$AAe@ 000000018001e428     libvcruntime:winapi_downlevel.obj
 0002:00000468       ??_C@_1DK@LPPGFMPP@?$AAa?$AAp?$AAi?$AA?9?$AAm?$AAs?$AA?9?$AAw?$AAi?$AAn?$AA?9?$AAc?$AAo?$AAr?$AAe@ 000000018001e468     libvcruntime:winapi_downlevel.obj
 0002:000004a8       ??_C@_1BC@GDMECMAK@?$AAk?$AAe?$AAr?$AAn?$AAe?$AAl?$AA3?$AA2@ 000000018001e4a8     libvcruntime:winapi_downlevel.obj
 0002:000004c0       ??_C@_1BA@PFFKHIOG@?$AAa?$AAp?$AAi?$AA?9?$AAm?$AAs?$AA?9@ 000000018001e4c0     libvcruntime:winapi_downlevel.obj
 0002:000004d0       ??_C@_1BA@IAIFMGEF@?$AAe?$AAx?$AAt?$AA?9?$AAm?$AAs?$AA?9@ 000000018001e4d0     libvcruntime:winapi_downlevel.obj
 0002:000004e8       ??_C@_08KNHFBNJ@FlsAlloc@  000000018001e4e8     libvcruntime:winapi_downlevel.obj
 0002:00000500       ??_C@_07PEJMOBNF@FlsFree@  000000018001e500     libvcruntime:winapi_downlevel.obj
 0002:00000510       ??_C@_0M@GDNOONDI@FlsGetValue@ 000000018001e510     libvcruntime:winapi_downlevel.obj
 0002:00000528       ??_C@_0M@JCPCPOEF@FlsSetValue@ 000000018001e528     libvcruntime:winapi_downlevel.obj
 0002:00000540       ??_C@_0BM@HCFOFFN@InitializeCriticalSectionEx@ 000000018001e540     libvcruntime:winapi_downlevel.obj
 0002:00000560       _pDestructExceptionObject  000000018001e560     libvcruntime:ehhelpers.obj
 0002:000008a8       ??_C@_08EHJDFFNH@__based?$CI@ 000000018001e8a8     libvcruntime:undname.obj
 0002:000008b8       ??_C@_07KOLFKCDI@__cdecl@  000000018001e8b8     libvcruntime:undname.obj
 0002:000008c0       ??_C@_08GHMPAG@__pascal@   000000018001e8c0     libvcruntime:undname.obj
 0002:000008d0       ??_C@_09IFJBGAPI@__stdcall@ 000000018001e8d0     libvcruntime:undname.obj
 0002:000008e0       ??_C@_0L@NPHFGOKO@__thiscall@ 000000018001e8e0     libvcruntime:undname.obj
 0002:000008f0       ??_C@_0L@JMKHOMEK@__fastcall@ 000000018001e8f0     libvcruntime:undname.obj
 0002:00000900       ??_C@_0N@BCKKPABJ@__vectorcall@ 000000018001e900     libvcruntime:undname.obj
 0002:00000910       ??_C@_09HIJEGCPM@__clrcall@ 000000018001e910     libvcruntime:undname.obj
 0002:0000091c       ??_C@_06GHPCKEAG@__eabi@   000000018001e91c     libvcruntime:undname.obj
 0002:00000928       ??_C@_09IOPIDJLG@__swift_1@ 000000018001e928     libvcruntime:undname.obj
 0002:00000938       ??_C@_09KFNFGKHF@__swift_2@ 000000018001e938     libvcruntime:undname.obj
 0002:00000948       ??_C@_07JOMMBBKO@__ptr64@  000000018001e948     libvcruntime:undname.obj
 0002:00000950       ??_C@_0L@PILCLIHE@__restrict@ 000000018001e950     libvcruntime:undname.obj
 0002:00000960       ??_C@_0M@GFIIJFMG@__unaligned@ 000000018001e960     libvcruntime:undname.obj
 0002:00000970       ??_C@_09DHDLOLLB@restrict?$CI@ 000000018001e970     libvcruntime:undname.obj
 0002:0000097a       ??_C@_00CNPNBAHC@@         000000018001e97a     libvcruntime:undname.obj
 0002:0000097c       ??_C@_04NIHEBCM@?5new@     000000018001e97c     libvcruntime:undname.obj
 0002:00000988       ??_C@_07FPCDHGMM@?5delete@ 000000018001e988     libvcruntime:undname.obj
 0002:00000990       ??_C@_01NEMOKFLO@?$DN@     000000018001e990     libvcruntime:undname.obj
 0002:00000994       ??_C@_02GPIOPFAK@?$DO?$DO@ 000000018001e994     libvcruntime:undname.obj
 0002:00000998       ??_C@_02FODMEDOG@?$DM?$DM@ 000000018001e998     libvcruntime:undname.obj
 0002:0000099c       ??_C@_01DCLJPIOD@?$CB@     000000018001e99c     libvcruntime:undname.obj
 0002:000009a0       ??_C@_02EGOFBIJA@?$DN?$DN@ 000000018001e9a0     libvcruntime:undname.obj
 0002:000009a4       ??_C@_02FDNJECIE@?$CB?$DN@ 000000018001e9a4     libvcruntime:undname.obj
 0002:000009a8       ??_C@_02GPECMEKF@?$FL?$FN@ 000000018001e9a8     libvcruntime:undname.obj
 0002:000009b0       ??_C@_08LHJFAFGD@operator@ 000000018001e9b0     libvcruntime:undname.obj
 0002:000009bc       ??_C@_02HBOOOICD@?9?$DO@   000000018001e9bc     libvcruntime:undname.obj
 0002:000009c0       ??_C@_01NBENCBCI@?$CK@     000000018001e9c0     libvcruntime:undname.obj
 0002:000009c4       ??_C@_02ECNGHCIF@?$CL?$CL@ 000000018001e9c4     libvcruntime:undname.obj
 0002:000009c8       ??_C@_02BAABKJLB@?9?9@     000000018001e9c8     libvcruntime:undname.obj
 0002:000009cc       ??_C@_01JOAMLHOP@?9@       000000018001e9cc     libvcruntime:undname.obj
 0002:000009d0       ??_C@_01MIFGBAGJ@?$CL@     000000018001e9d0     libvcruntime:undname.obj
 0002:000009d4       ??_C@_01HNPIGOCE@?$CG@     000000018001e9d4     libvcruntime:undname.obj
 0002:000009d8       ??_C@_03MNHNFDLC@?9?$DO?$CK@ 000000018001e9d8     libvcruntime:undname.obj
 0002:000009dc       ??_C@_01KMDKNFGN@?1@       000000018001e9dc     libvcruntime:undname.obj
 0002:000009e0       ??_C@_01FGNFDNOH@?$CF@     000000018001e9e0     libvcruntime:undname.obj
 0002:000009e4       ??_C@_01MNNFJEPP@?$DM@     000000018001e9e4     libvcruntime:undname.obj
 0002:000009e8       ??_C@_02EHCHHCKH@?$DM?$DN@ 000000018001e9e8     libvcruntime:undname.obj
 0002:000009ec       ??_C@_01PPODPGHN@?$DO@     000000018001e9ec     libvcruntime:undname.obj
 0002:000009f0       ??_C@_02EEKDKGMJ@?$DO?$DN@ 000000018001e9f0     libvcruntime:undname.obj
 0002:000009f4       ??_C@_01IHBHIGKO@?0@       000000018001e9f4     libvcruntime:undname.obj
 0002:000009f8       ??_C@_02HCKGKOFO@?$CI?$CJ@ 000000018001e9f8     libvcruntime:undname.obj
 0002:000009fc       ??_C@_01PJKLJHI@?$HO@      000000018001e9fc     libvcruntime:undname.obj
 0002:00000a00       ??_C@_01JKBOJNNK@?$FO@     000000018001ea00     libvcruntime:undname.obj
 0002:00000a04       ??_C@_01DNKMNLPK@?$HM@     000000018001ea04     libvcruntime:undname.obj
 0002:00000a08       ??_C@_02PPKAJPJL@?$CG?$CG@ 000000018001ea08     libvcruntime:undname.obj
 0002:00000a0c       ??_C@_02NONPIBCD@?$HM?$HM@ 000000018001ea0c     libvcruntime:undname.obj
 0002:00000a10       ??_C@_02FPIMKNGF@?$CK?$DN@ 000000018001ea10     libvcruntime:undname.obj
 0002:00000a14       ??_C@_02FOEOMHFC@?$CL?$DN@ 000000018001ea14     libvcruntime:undname.obj
 0002:00000a18       ??_C@_02FKMDLLOA@?9?$DN@   000000018001ea18     libvcruntime:undname.obj
 0002:00000a1c       ??_C@_02FJEHGPIO@?1?$DN@   000000018001ea1c     libvcruntime:undname.obj
 0002:00000a20       ??_C@_02FENAOKFI@?$CF?$DN@ 000000018001ea20     libvcruntime:undname.obj
 0002:00000a24       ??_C@_03IKFCCPFF@?$DO?$DO?$DN@ 000000018001ea24     libvcruntime:undname.obj
 0002:00000a28       ??_C@_03CDNPDDLA@?$DM?$DM?$DN@ 000000018001ea28     libvcruntime:undname.obj
 0002:00000a2c       ??_C@_02FGJGFEAB@?$CG?$DN@ 000000018001ea2c     libvcruntime:undname.obj
 0002:00000a30       ??_C@_02DHLNPPGH@?$HM?$DN@ 000000018001ea30     libvcruntime:undname.obj
 0002:00000a34       ??_C@_02MHEGNOJ@?$FO?$DN@  000000018001ea34     libvcruntime:undname.obj
 0002:00000a38       ??_C@_09IFPLHPGF@?$GAvftable?8@ 000000018001ea38     libvcruntime:undname.obj
 0002:00000a48       ??_C@_09BLBHBJP@?$GAvbtable?8@ 000000018001ea48     libvcruntime:undname.obj
 0002:00000a58       ??_C@_07FEEIOKP@?$GAvcall?8@ 000000018001ea58     libvcruntime:undname.obj
 0002:00000a60       ??_C@_08LLFFHHDJ@?$GAtypeof?8@ 000000018001ea60     libvcruntime:undname.obj
 0002:00000a70       ??_C@_0BF@KDPPACIK@?$GAlocal?5static?5guard?8@ 000000018001ea70     libvcruntime:undname.obj
 0002:00000a88       ??_C@_08OBABFOLI@?$GAstring?8@ 000000018001ea88     libvcruntime:undname.obj
 0002:00000a98       ??_C@_0BD@JDLKDPAB@?$GAvbase?5destructor?8@ 000000018001ea98     libvcruntime:undname.obj
 0002:00000ab0       ??_C@_0BN@DEGPLNFK@?$GAvector?5deleting?5destructor?8@ 000000018001eab0     libvcruntime:undname.obj
 0002:00000ad0       ??_C@_0BO@OBMKPJIG@?$GAdefault?5constructor?5closure?8@ 000000018001ead0     libvcruntime:undname.obj
 0002:00000af0       ??_C@_0BN@IMDCHIKM@?$GAscalar?5deleting?5destructor?8@ 000000018001eaf0     libvcruntime:undname.obj
 0002:00000b10       ??_C@_0BO@PFGOCPJJ@?$GAvector?5constructor?5iterator?8@ 000000018001eb10     libvcruntime:undname.obj
 0002:00000b30       ??_C@_0BN@LFPFMEDL@?$GAvector?5destructor?5iterator?8@ 000000018001eb30     libvcruntime:undname.obj
 0002:00000b50       ??_C@_0CE@IKBNEHA@?$GAvector?5vbase?5constructor?5itera@ 000000018001eb50     libvcruntime:undname.obj
 0002:00000b78       ??_C@_0BL@NILFHHPC@?$GAvirtual?5displacement?5map?8@ 000000018001eb78     libvcruntime:undname.obj
 0002:00000b98       ??_C@_0CB@JONCMFFK@?$GAeh?5vector?5constructor?5iterator@ 000000018001eb98     libvcruntime:undname.obj
 0002:00000bc0       ??_C@_0CA@GCEOPDGL@?$GAeh?5vector?5destructor?5iterator?8@ 000000018001ebc0     libvcruntime:undname.obj
 0002:00000be0       ??_C@_0CH@OOJPLCPH@?$GAeh?5vector?5vbase?5constructor?5it@ 000000018001ebe0     libvcruntime:undname.obj
 0002:00000c08       ??_C@_0BL@LLKPOHJI@?$GAcopy?5constructor?5closure?8@ 000000018001ec08     libvcruntime:undname.obj
 0002:00000c28       ??_C@_0BA@KBCDOMBN@?$GAudt?5returning?8@ 000000018001ec28     libvcruntime:undname.obj
 0002:00000c38       ??_C@_03KLGMFNMG@?$GAEH@   000000018001ec38     libvcruntime:undname.obj
 0002:00000c3c       ??_C@_05KHLCHHI@?$GARTTI@  000000018001ec3c     libvcruntime:undname.obj
 0002:00000c48       ??_C@_0BA@KKLDJDLB@?$GAlocal?5vftable?8@ 000000018001ec48     libvcruntime:undname.obj
 0002:00000c58       ??_C@_0CE@IIHCMGGL@?$GAlocal?5vftable?5constructor?5clos@ 000000018001ec58     libvcruntime:undname.obj
 0002:00000c7c       ??_C@_06FHBGPFGH@?5new?$FL?$FN@ 000000018001ec7c     libvcruntime:undname.obj
 0002:00000c88       ??_C@_09LBNFPBCA@?5delete?$FL?$FN@ 000000018001ec88     libvcruntime:undname.obj
 0002:00000c98       ??_C@_0P@HJKNJFNN@?$GAomni?5callsig?8@ 000000018001ec98     libvcruntime:undname.obj
 0002:00000ca8       ??_C@_0BL@CNOONJFP@?$GAplacement?5delete?5closure?8@ 000000018001eca8     libvcruntime:undname.obj
 0002:00000cc8       ??_C@_0BN@CKNJLHMB@?$GAplacement?5delete?$FL?$FN?5closure?8@ 000000018001ecc8     libvcruntime:undname.obj
 0002:00000ce8       ??_C@_0CG@CFDHKGGD@?$GAmanaged?5vector?5constructor?5ite@ 000000018001ece8     libvcruntime:undname.obj
 0002:00000d10       ??_C@_0CF@IMGKMJNO@?$GAmanaged?5vector?5destructor?5iter@ 000000018001ed10     libvcruntime:undname.obj
 0002:00000d38       ??_C@_0CG@HLDDJMAG@?$GAeh?5vector?5copy?5constructor?5ite@ 000000018001ed38     libvcruntime:undname.obj
 0002:00000d60       ??_C@_0CM@FCBBDIGB@?$GAeh?5vector?5vbase?5copy?5construct@ 000000018001ed60     libvcruntime:undname.obj
 0002:00000d90       ??_C@_0BL@CLIPGLGB@?$GAdynamic?5initializer?5for?5?8@ 000000018001ed90     libvcruntime:undname.obj
 0002:00000db0       ??_C@_0CB@PDBIFEP@?$GAdynamic?5atexit?5destructor?5for?5@ 000000018001edb0     libvcruntime:undname.obj
 0002:00000dd8       ??_C@_0CD@CGAJBKEJ@?$GAvector?5copy?5constructor?5iterat@ 000000018001edd8     libvcruntime:undname.obj
 0002:00000e00       ??_C@_0CJ@GJELGAMM@?$GAvector?5vbase?5copy?5constructor?5@ 000000018001ee00     libvcruntime:undname.obj
 0002:00000e30       ??_C@_0CL@FGIJHLCE@?$GAmanaged?5vector?5copy?5constructo@ 000000018001ee30     libvcruntime:undname.obj
 0002:00000e60       ??_C@_0BM@PMGGMLDN@?$GAlocal?5static?5thread?5guard?8@ 000000018001ee60     libvcruntime:undname.obj
 0002:00000e80       ??_C@_0N@BDNMDMOL@operator?5?$CC?$CC?5@ 000000018001ee80     libvcruntime:undname.obj
 0002:00000e90       ??_C@_0BC@GGEBGALA@operator?5co_await@ 000000018001ee90     libvcruntime:undname.obj
 0002:00000ea8       ??_C@_0BC@DAFEJGAK@?5Type?5Descriptor?8@ 000000018001eea8     libvcruntime:undname.obj
 0002:00000ec0       ??_C@_0BM@LDKODKLH@?5Base?5Class?5Descriptor?5at?5?$CI@ 000000018001eec0     libvcruntime:undname.obj
 0002:00000ee0       ??_C@_0BD@LGICGFMM@?5Base?5Class?5Array?8@ 000000018001eee0     libvcruntime:undname.obj
 0002:00000ef8       ??_C@_0BN@MECKDCOJ@?5Class?5Hierarchy?5Descriptor?8@ 000000018001eef8     libvcruntime:undname.obj
 0002:00000f18       ??_C@_0BK@CFCOFLF@?5Complete?5Object?5Locator?8@ 000000018001ef18     libvcruntime:undname.obj
 0002:00000fe0       ??_7bad_exception@std@@6B@ 000000018001efe0     libvcruntime:frame.obj
 0002:00000ff0       ??_C@_0O@DPKOEFFH@bad?5exception@ 000000018001eff0     libvcruntime:frame.obj
 0002:00001000       ??_C@_1FE@LHBLIKM@?$AAA?$AAs?$AAs?$AAe?$AAr?$AAt?$AAi?$AAo?$AAn?$AA?5?$AAf?$AAa?$AAi?$AAl?$AAe?$AAd?$AA?3?$AA?5?$AA?$CF?$AAT?$AAs?$AA?0?$AA?5?$AAf?$AAi?$AAl?$AAe?$AA?5?$AA?$CF?$AAT?$AAs?$AA?0@ 000000018001f000     libucrt:assert.obj
 0002:00001060       ??_C@_1EK@MBDPDCGA@?$AAM?$AAi?$AAc?$AAr?$AAo?$AAs?$AAo?$AAf?$AAt?$AA?5?$AAV?$AAi?$AAs?$AAu?$AAa?$AAl?$AA?5?$AAC?$AA?$CL?$AA?$CL?$AA?5?$AAR?$AAu?$AAn?$AAt?$AAi?$AAm?$AAe?$AA?5?$AAL?$AAi?$AAb@ 000000018001f060     libucrt:assert.obj
 0002:000010b0       ??_C@_1CE@OJBNHDMO@?$AAA?$AAs?$AAs?$AAe?$AAr?$AAt?$AAi?$AAo?$AAn?$AA?5?$AAf?$AAa?$AAi?$AAl?$AAe?$AAd?$AA?$CB?$AA?$AA@ 000000018001f0b0     libucrt:assert.obj
 0002:000010d8       ??_C@_1BE@PHKBBGE@?$AAP?$AAr?$AAo?$AAg?$AAr?$AAa?$AAm?$AA?3?$AA?5?$AA?$AA@ 000000018001f0d8     libucrt:assert.obj
 0002:000010f0       ??_C@_1O@HEMHKNDC@?$AAF?$AAi?$AAl?$AAe?$AA?3?$AA?5?$AA?$AA@ 000000018001f0f0     libucrt:assert.obj
 0002:00001100       ??_C@_1O@KCAFKHJE@?$AAL?$AAi?$AAn?$AAe?$AA?3?$AA?5?$AA?$AA@ 000000018001f100     libucrt:assert.obj
 0002:00001110       ??_C@_1BK@PEDCIPMA@?$AAE?$AAx?$AAp?$AAr?$AAe?$AAs?$AAs?$AAi?$AAo?$AAn?$AA?3?$AA?5?$AA?$AA@ 000000018001f110     libucrt:assert.obj
 0002:00001130       ??_C@_1OA@EGMLFBHJ@?$AAF?$AAo?$AAr?$AA?5?$AAi?$AAn?$AAf?$AAo?$AAr?$AAm?$AAa?$AAt?$AAi?$AAo?$AAn?$AA?5?$AAo?$AAn?$AA?5?$AAh?$AAo?$AAw?$AA?5?$AAy?$AAo?$AAu?$AAr?$AA?5?$AAp?$AAr?$AAo?$AAg@ 000000018001f130     libucrt:assert.obj
 0002:00001210       ??_C@_1HK@POCJMFGK@?$AA?$CI?$AAP?$AAr?$AAe?$AAs?$AAs?$AA?5?$AAR?$AAe?$AAt?$AAr?$AAy?$AA?5?$AAt?$AAo?$AA?5?$AAd?$AAe?$AAb?$AAu?$AAg?$AA?5?$AAt?$AAh?$AAe?$AA?5?$AAa?$AAp?$AAp?$AAl?$AAi?$AAc@ 000000018001f210     libucrt:assert.obj
 0002:00001290       ??_C@_17LGKOMLJ@?$AA?4?$AA?4?$AA?4?$AA?$AA@ 000000018001f290     libucrt:assert.obj
 0002:00001298       ??_C@_13LBAGMAIH@?$AA?6?$AA?$AA@ 000000018001f298     libucrt:assert.obj
 0002:0000129c       ??_C@_15IABLJNFO@?$AA?6?$AA?6?$AA?$AA@ 000000018001f29c     libucrt:assert.obj
 0002:000012a8       ??_C@_1CO@EAEJAADC@?$AA?$DM?$AAp?$AAr?$AAo?$AAg?$AAr?$AAa?$AAm?$AA?5?$AAn?$AAa?$AAm?$AAe?$AA?5?$AAu?$AAn?$AAk?$AAn?$AAo?$AAw?$AAn?$AA?$DO?$AA?$AA@ 000000018001f2a8     libucrt:assert.obj
 0002:000012e0       standard_lookup_table      000000018001f2e0     libucrt:output.obj
 0002:00001340       ??_C@_1O@CEDCILHN@?$AA?$CI?$AAn?$AAu?$AAl?$AAl?$AA?$CJ?$AA?$AA@ 000000018001f340     libucrt:output.obj
 0002:00001350       ??_C@_06OJHGLDPL@?$CInull?$CJ?$AA@ 000000018001f350     libucrt:output.obj
 0002:00001360       __acrt_exception_action_table 000000018001f360     libucrt:exception_filter.obj
 0002:00001420       __acrt_signal_action_table_count 000000018001f420     libucrt:exception_filter.obj
 0002:00001428       __acrt_signal_action_first_fpe_index 000000018001f428     libucrt:exception_filter.obj
 0002:00001430       __acrt_signal_action_fpe_count 000000018001f430     libucrt:exception_filter.obj
 0002:00001438       ??_C@_1BI@BGOHAHKC@?$AAm?$AAs?$AAc?$AAo?$AAr?$AAe?$AAe?$AA?4?$AAd?$AAl?$AAl?$AA?$AA@ 000000018001f438     libucrt:exit.obj
 0002:00001450       ??_C@_0P@MIGLKIOC@CorExitProcess?$AA@ 000000018001f450     libucrt:exit.obj
 0002:00001760       ??_C@_1EA@JGEFHKEI@?$AAa?$AAp?$AAi?$AA?9?$AAm?$AAs?$AA?9?$AAw?$AAi?$AAn?$AA?9?$AAc?$AAo?$AAr?$AAe?$AA?9?$AAd?$AAa?$AAt?$AAe?$AAt?$AAi?$AAm?$AAe?$AA?9?$AAl?$AA1?$AA?9?$AA1?$AA?9?$AA1?$AA?$AA@ 000000018001f760     libucrt:winapi_thunks.obj
 0002:000017a0       ??_C@_1DM@KHCHBNEB@?$AAa?$AAp?$AAi?$AA?9?$AAm?$AAs?$AA?9?$AAw?$AAi?$AAn?$AA?9?$AAc?$AAo?$AAr?$AAe?$AA?9?$AAf?$AAi?$AAb?$AAe?$AAr?$AAs?$AA?9?$AAl?$AA1?$AA?9?$AA1?$AA?9?$AA1?$AA?$AA@ 000000018001f7a0     libucrt:winapi_thunks.obj
 0002:000017e0       ??_C@_1DI@IJCEHOCB@?$AAa?$AAp?$AAi?$AA?9?$AAm?$AAs?$AA?9?$AAw?$AAi?$AAn?$AA?9?$AAc?$AAo?$AAr?$AAe?$AA?9?$AAf?$AAi?$AAl?$AAe?$AA?9?$AAl?$AA1?$AA?9?$AA2?$AA?9?$AA2?$AA?$AA@ 000000018001f7e0     libucrt:winapi_thunks.obj
 0002:00001820       ??_C@_1EI@MPIAOHOC@?$AAa?$AAp?$AAi?$AA?9?$AAm?$AAs?$AA?9?$AAw?$AAi?$AAn?$AA?9?$AAc?$AAo?$AAr?$AAe?$AA?9?$AAl?$AAo?$AAc?$AAa?$AAl?$AAi?$AAz?$AAa?$AAt?$AAi?$AAo?$AAn?$AA?9?$AAl?$AA1?$AA?9@ 000000018001f820     libucrt:winapi_thunks.obj
 0002:00001870       ??_C@_1FK@FPHCKFIE@?$AAa?$AAp?$AAi?$AA?9?$AAm?$AAs?$AA?9?$AAw?$AAi?$AAn?$AA?9?$AAc?$AAo?$AAr?$AAe?$AA?9?$AAl?$AAo?$AAc?$AAa?$AAl?$AAi?$AAz?$AAa?$AAt?$AAi?$AAo?$AAn?$AA?9?$AAo?$AAb?$AAs@ 000000018001f870     libucrt:winapi_thunks.obj
 0002:000018d0       ??_C@_1EM@DILCGIIO@?$AAa?$AAp?$AAi?$AA?9?$AAm?$AAs?$AA?9?$AAw?$AAi?$AAn?$AA?9?$AAc?$AAo?$AAr?$AAe?$AA?9?$AAp?$AAr?$AAo?$AAc?$AAe?$AAs?$AAs?$AAt?$AAh?$AAr?$AAe?$AAa?$AAd?$AAs?$AA?9?$AAl@ 000000018001f8d0     libucrt:winapi_thunks.obj
 0002:00001920       ??_C@_1DM@LNCGDDPN@?$AAa?$AAp?$AAi?$AA?9?$AAm?$AAs?$AA?9?$AAw?$AAi?$AAn?$AA?9?$AAc?$AAo?$AAr?$AAe?$AA?9?$AAs?$AAt?$AAr?$AAi?$AAn?$AAg?$AA?9?$AAl?$AA1?$AA?9?$AA1?$AA?9?$AA0?$AA?$AA@ 000000018001f920     libucrt:winapi_thunks.obj
 0002:00001960       ??_C@_1DK@LPPGFMPP@?$AAa?$AAp?$AAi?$AA?9?$AAm?$AAs?$AA?9?$AAw?$AAi?$AAn?$AA?9?$AAc?$AAo?$AAr?$AAe?$AA?9?$AAs?$AAy?$AAn?$AAc?$AAh?$AA?9?$AAl?$AA1?$AA?9?$AA2?$AA?9?$AA0?$AA?$AA@ 000000018001f960     libucrt:winapi_thunks.obj
 0002:000019a0       ??_C@_1DO@FPAPJEMD@?$AAa?$AAp?$AAi?$AA?9?$AAm?$AAs?$AA?9?$AAw?$AAi?$AAn?$AA?9?$AAc?$AAo?$AAr?$AAe?$AA?9?$AAs?$AAy?$AAs?$AAi?$AAn?$AAf?$AAo?$AA?9?$AAl?$AA1?$AA?9?$AA2?$AA?9?$AA1?$AA?$AA@ 000000018001f9a0     libucrt:winapi_thunks.obj
 0002:000019e0       ??_C@_1DK@NDHNAHIO@?$AAa?$AAp?$AAi?$AA?9?$AAm?$AAs?$AA?9?$AAw?$AAi?$AAn?$AA?9?$AAc?$AAo?$AAr?$AAe?$AA?9?$AAw?$AAi?$AAn?$AAr?$AAt?$AA?9?$AAl?$AA1?$AA?9?$AA1?$AA?9?$AA0?$AA?$AA@ 000000018001f9e0     libucrt:winapi_thunks.obj
 0002:00001a20       ??_C@_1DM@KGHDGBCM@?$AAa?$AAp?$AAi?$AA?9?$AAm?$AAs?$AA?9?$AAw?$AAi?$AAn?$AA?9?$AAc?$AAo?$AAr?$AAe?$AA?9?$AAx?$AAs?$AAt?$AAa?$AAt?$AAe?$AA?9?$AAl?$AA2?$AA?9?$AA1?$AA?9?$AA0?$AA?$AA@ 000000018001fa20     libucrt:winapi_thunks.obj
 0002:00001a60       ??_C@_1EO@IJIOEFOH@?$AAa?$AAp?$AAi?$AA?9?$AAm?$AAs?$AA?9?$AAw?$AAi?$AAn?$AA?9?$AAr?$AAt?$AAc?$AAo?$AAr?$AAe?$AA?9?$AAn?$AAt?$AAu?$AAs?$AAe?$AAr?$AA?9?$AAw?$AAi?$AAn?$AAd?$AAo?$AAw?$AA?9@ 000000018001fa60     libucrt:winapi_thunks.obj
 0002:00001ab0       ??_C@_1FG@HHGEKANL@?$AAa?$AAp?$AAi?$AA?9?$AAm?$AAs?$AA?9?$AAw?$AAi?$AAn?$AA?9?$AAs?$AAe?$AAc?$AAu?$AAr?$AAi?$AAt?$AAy?$AA?9?$AAs?$AAy?$AAs?$AAt?$AAe?$AAm?$AAf?$AAu?$AAn?$AAc?$AAt?$AAi@ 000000018001fab0     libucrt:winapi_thunks.obj
 0002:00001b10       ??_C@_1EG@DBIOJECG@?$AAe?$AAx?$AAt?$AA?9?$AAm?$AAs?$AA?9?$AAw?$AAi?$AAn?$AA?9?$AAn?$AAt?$AAu?$AAs?$AAe?$AAr?$AA?9?$AAd?$AAi?$AAa?$AAl?$AAo?$AAg?$AAb?$AAo?$AAx?$AA?9?$AAl?$AA1?$AA?9?$AA1@ 000000018001fb10     libucrt:winapi_thunks.obj
 0002:00001b60       ??_C@_1EO@FIHMJCLF@?$AAe?$AAx?$AAt?$AA?9?$AAm?$AAs?$AA?9?$AAw?$AAi?$AAn?$AA?9?$AAn?$AAt?$AAu?$AAs?$AAe?$AAr?$AA?9?$AAw?$AAi?$AAn?$AAd?$AAo?$AAw?$AAs?$AAt?$AAa?$AAt?$AAi?$AAo?$AAn?$AA?9@ 000000018001fb60     libucrt:winapi_thunks.obj
 0002:00001bb0       ??_C@_1BC@DNHGCMLG@?$AAa?$AAd?$AAv?$AAa?$AAp?$AAi?$AA3?$AA2?$AA?$AA@ 000000018001fbb0     libucrt:winapi_thunks.obj
 0002:00001bc8       ??_C@_1BC@GDMECMAK@?$AAk?$AAe?$AAr?$AAn?$AAe?$AAl?$AA3?$AA2?$AA?$AA@ 000000018001fbc8     libucrt:winapi_thunks.obj
 0002:00001be0       ??_C@_1M@OAIMIKLP@?$AAn?$AAt?$AAd?$AAl?$AAl?$AA?$AA@ 000000018001fbe0     libucrt:winapi_thunks.obj
 0002:00001bf0       ??_C@_1EG@DPGNFKGC@?$AAa?$AAp?$AAi?$AA?9?$AAm?$AAs?$AA?9?$AAw?$AAi?$AAn?$AA?9?$AAa?$AAp?$AAp?$AAm?$AAo?$AAd?$AAe?$AAl?$AA?9?$AAr?$AAu?$AAn?$AAt?$AAi?$AAm?$AAe?$AA?9?$AAl?$AA1?$AA?9?$AA1@ 000000018001fbf0     libucrt:winapi_thunks.obj
 0002:00001c38       ??_C@_1O@BCCLBEOE@?$AAu?$AAs?$AAe?$AAr?$AA3?$AA2?$AA?$AA@ 000000018001fc38     libucrt:winapi_thunks.obj
 0002:00001c48       ??_C@_1BA@PFFKHIOG@?$AAa?$AAp?$AAi?$AA?9?$AAm?$AAs?$AA?9?$AA?$AA@ 000000018001fc48     libucrt:winapi_thunks.obj
 0002:00001c58       ??_C@_1BA@IAIFMGEF@?$AAe?$AAx?$AAt?$AA?9?$AAm?$AAs?$AA?9?$AA?$AA@ 000000018001fc58     libucrt:winapi_thunks.obj
 0002:00001c70       ??_C@_08KNHFBNJ@FlsAlloc?$AA@ 000000018001fc70     libucrt:winapi_thunks.obj
 0002:00001c88       ??_C@_07PEJMOBNF@FlsFree?$AA@ 000000018001fc88     libucrt:winapi_thunks.obj
 0002:00001c98       ??_C@_0M@GDNOONDI@FlsGetValue?$AA@ 000000018001fc98     libucrt:winapi_thunks.obj
 0002:00001cb0       ??_C@_0M@JCPCPOEF@FlsSetValue?$AA@ 000000018001fcb0     libucrt:winapi_thunks.obj
 0002:00001cc8       ??_C@_0BA@HNOPNCHB@GetActiveWindow?$AA@ 000000018001fcc8     libucrt:winapi_thunks.obj
 0002:00001ce0       ??_C@_0BD@HHGDFDBJ@GetLastActivePopup?$AA@ 000000018001fce0     libucrt:winapi_thunks.obj
 0002:00001d00       ??_C@_0BI@DFKBFLJE@GetProcessWindowStation?$AA@ 000000018001fd00     libucrt:winapi_thunks.obj
 0002:00001d20       ??_C@_0BK@DEKFELLI@GetUserObjectInformationW?$AA@ 000000018001fd20     libucrt:winapi_thunks.obj
 0002:00001d48       ??_C@_0BM@HCFOFFN@InitializeCriticalSectionEx?$AA@ 000000018001fd48     libucrt:winapi_thunks.obj
 0002:00001d70       ??_C@_0O@KKBNKAPF@LCMapStringEx?$AA@ 000000018001fd70     libucrt:winapi_thunks.obj
 0002:00001d88       ??_C@_0BB@HBDEELFH@LocaleNameToLCID?$AA@ 000000018001fd88     libucrt:winapi_thunks.obj
 0002:00001da8       ??_C@_0M@CHKKJDAI@MessageBoxA?$AA@ 000000018001fda8     libucrt:winapi_thunks.obj
 0002:00001dc0       ??_C@_0M@DLDCCGNP@MessageBoxW?$AA@ 000000018001fdc0     libucrt:winapi_thunks.obj
 0002:00001dd0       ??_C@_0CF@OJOFEIGO@AppPolicyGetProcessTerminationMe@ 000000018001fdd0     libucrt:winapi_thunks.obj
 0002:00001e00       ??_C@_0CE@OICFMIKE@AppPolicyGetShowDeveloperDiagnos@ 000000018001fe00     libucrt:winapi_thunks.obj
 0002:00001e28       ??_C@_0BL@ODDJNEDA@AppPolicyGetWindowingModel?$AA@ 000000018001fe28     libucrt:winapi_thunks.obj
 0002:00001e44       ??_C@_03OEIAHPBN@INF?$AA@  000000018001fe44     libucrt:cvt.obj
 0002:00001e48       ??_C@_03OJHLLCGB@inf?$AA@  000000018001fe48     libucrt:cvt.obj
 0002:00001e4c       ??_C@_03LKNCIKJB@NAN?$AA@  000000018001fe4c     libucrt:cvt.obj
 0002:00001e50       ??_C@_03LHCJEHON@nan?$AA@  000000018001fe50     libucrt:cvt.obj
 0002:00001e58       ??_C@_09OFJJIMPC@NAN?$CISNAN?$CJ?$AA@ 000000018001fe58     libucrt:cvt.obj
 0002:00001e68       ??_C@_09IPFBKMDL@nan?$CIsnan?$CJ?$AA@ 000000018001fe68     libucrt:cvt.obj
 0002:00001e78       ??_C@_08IKHNHAJ@NAN?$CIIND?$CJ?$AA@ 000000018001fe78     libucrt:cvt.obj
 0002:00001e88       ??_C@_08OFCDMILK@nan?$CIind?$CJ?$AA@ 000000018001fe88     libucrt:cvt.obj
 0002:00001e94       ??_C@_05KLBDPFGC@e?$CL000?$AA@ 000000018001fe94     libucrt:cvt.obj
 0002:00001ea0       __lc_time_c                000000018001fea0     libucrt:nlsdata.obj
 0002:00002160       ??_C@_03KOEHGMDN@Sun?$AA@  0000000180020160     libucrt:nlsdata.obj
 0002:00002164       ??_C@_03PDAGKDH@Mon?$AA@   0000000180020164     libucrt:nlsdata.obj
 0002:00002168       ??_C@_03NAGEINEP@Tue?$AA@  0000000180020168     libucrt:nlsdata.obj
 0002:0000216c       ??_C@_03MHOMLAJA@Wed?$AA@  000000018002016c     libucrt:nlsdata.obj
 0002:00002170       ??_C@_03IOFIKPDN@Thu?$AA@  0000000180020170     libucrt:nlsdata.obj
 0002:00002174       ??_C@_03IDIOELNC@Fri?$AA@  0000000180020174     libucrt:nlsdata.obj
 0002:00002178       ??_C@_03FEFJNEK@Sat?$AA@   0000000180020178     libucrt:nlsdata.obj
 0002:0000217c       ??_C@_06OOPIFAJ@Sunday?$AA@ 000000018002017c     libucrt:nlsdata.obj
 0002:00002184       ??_C@_06JLEDEDGH@Monday?$AA@ 0000000180020184     libucrt:nlsdata.obj
 0002:00002190       ??_C@_07BAAGCFCM@Tuesday?$AA@ 0000000180020190     libucrt:nlsdata.obj
 0002:00002198       ??_C@_09DLIGFAKA@Wednesday?$AA@ 0000000180020198     libucrt:nlsdata.obj
 0002:000021a8       ??_C@_08HACCIKIA@Thursday?$AA@ 00000001800201a8     libucrt:nlsdata.obj
 0002:000021b4       ??_C@_06JECMNKMI@Friday?$AA@ 00000001800201b4     libucrt:nlsdata.obj
 0002:000021c0       ??_C@_08INBOOONO@Saturday?$AA@ 00000001800201c0     libucrt:nlsdata.obj
 0002:000021cc       ??_C@_03JIHJHPIE@Jan?$AA@  00000001800201cc     libucrt:nlsdata.obj
 0002:000021d0       ??_C@_03HJBDCHOM@Feb?$AA@  00000001800201d0     libucrt:nlsdata.obj
 0002:000021d4       ??_C@_03ODNJBKGA@Mar?$AA@  00000001800201d4     libucrt:nlsdata.obj
 0002:000021d8       ??_C@_03LEOLGMJP@Apr?$AA@  00000001800201d8     libucrt:nlsdata.obj
 0002:000021dc       ??_C@_03CNMDKL@May?$AA@    00000001800201dc     libucrt:nlsdata.obj
 0002:000021e0       ??_C@_03IDFGHECI@Jun?$AA@  00000001800201e0     libucrt:nlsdata.obj
 0002:000021e4       ??_C@_03LBGABGKK@Jul?$AA@  00000001800201e4     libucrt:nlsdata.obj
 0002:000021e8       ??_C@_03IFJFEIGA@Aug?$AA@  00000001800201e8     libucrt:nlsdata.obj
 0002:000021ec       ??_C@_03GGCAPAJC@Sep?$AA@  00000001800201ec     libucrt:nlsdata.obj
 0002:000021f0       ??_C@_03BMAOKBAD@Oct?$AA@  00000001800201f0     libucrt:nlsdata.obj
 0002:000021f4       ??_C@_03JPJOFNIA@Nov?$AA@  00000001800201f4     libucrt:nlsdata.obj
 0002:000021f8       ??_C@_03MKABNOCG@Dec?$AA@  00000001800201f8     libucrt:nlsdata.obj
 0002:00002200       ??_C@_07CGJPFGJA@January?$AA@ 0000000180020200     libucrt:nlsdata.obj
 0002:00002208       ??_C@_08GNJGEPFN@February?$AA@ 0000000180020208     libucrt:nlsdata.obj
 0002:00002214       ??_C@_05HPCKOFNC@March?$AA@ 0000000180020214     libucrt:nlsdata.obj
 0002:0000221c       ??_C@_05DMJDNLEJ@April?$AA@ 000000018002021c     libucrt:nlsdata.obj
 0002:00002224       ??_C@_04CNLMGBGM@June?$AA@ 0000000180020224     libucrt:nlsdata.obj
 0002:0000222c       ??_C@_04MIEPOIFP@July?$AA@ 000000018002022c     libucrt:nlsdata.obj
 0002:00002234       ??_C@_06LBBHFDDG@August?$AA@ 0000000180020234     libucrt:nlsdata.obj
 0002:00002240       ??_C@_09BHHEALKD@September?$AA@ 0000000180020240     libucrt:nlsdata.obj
 0002:00002250       ??_C@_07JJNFCEND@October?$AA@ 0000000180020250     libucrt:nlsdata.obj
 0002:00002258       ??_C@_08HCHEGEOA@November?$AA@ 0000000180020258     libucrt:nlsdata.obj
 0002:00002268       ??_C@_08EDHMEBNP@December?$AA@ 0000000180020268     libucrt:nlsdata.obj
 0002:00002274       ??_C@_02DEDBPAFC@AM?$AA@   0000000180020274     libucrt:nlsdata.obj
 0002:00002278       ??_C@_02CJNFDJBF@PM?$AA@   0000000180020278     libucrt:nlsdata.obj
 0002:00002280       ??_C@_08BPBNCDIB@MM?1dd?1yy?$AA@ 0000000180020280     libucrt:nlsdata.obj
 0002:00002290       ??_C@_0BE@CKGJFCPC@dddd?0?5MMMM?5dd?0?5yyyy?$AA@ 0000000180020290     libucrt:nlsdata.obj
 0002:000022a8       ??_C@_08JCCMCCIL@HH?3mm?3ss?$AA@ 00000001800202a8     libucrt:nlsdata.obj
 0002:000022b8       ??_C@_17MBGCMIPB@?$AAS?$AAu?$AAn?$AA?$AA@ 00000001800202b8     libucrt:nlsdata.obj
 0002:000022c0       ??_C@_17KBOMKBF@?$AAM?$AAo?$AAn?$AA?$AA@ 00000001800202c0     libucrt:nlsdata.obj
 0002:000022c8       ??_C@_17BMKGEGOJ@?$AAT?$AAu?$AAe?$AA?$AA@ 00000001800202c8     libucrt:nlsdata.obj
 0002:000022d0       ??_C@_17CJEDCEPE@?$AAW?$AAe?$AAd?$AA?$AA@ 00000001800202d0     libucrt:nlsdata.obj
 0002:000022d8       ??_C@_17PDPHAADD@?$AAT?$AAh?$AAu?$AA?$AA@ 00000001800202d8     libucrt:nlsdata.obj
 0002:000022e0       ??_C@_17HFOLPPLP@?$AAF?$AAr?$AAi?$AA?$AA@ 00000001800202e0     libucrt:nlsdata.obj
 0002:000022e8       ??_C@_17GGIBDPIH@?$AAS?$AAa?$AAt?$AA?$AA@ 00000001800202e8     libucrt:nlsdata.obj
 0002:000022f0       ??_C@_1O@IHNHDHPB@?$AAS?$AAu?$AAn?$AAd?$AAa?$AAy?$AA?$AA@ 00000001800202f0     libucrt:nlsdata.obj
 0002:00002300       ??_C@_1O@MMNBFLIA@?$AAM?$AAo?$AAn?$AAd?$AAa?$AAy?$AA?$AA@ 0000000180020300     libucrt:nlsdata.obj
 0002:00002310       ??_C@_1BA@ENFBFFEK@?$AAT?$AAu?$AAe?$AAs?$AAd?$AAa?$AAy?$AA?$AA@ 0000000180020310     libucrt:nlsdata.obj
 0002:00002320       ??_C@_1BE@EBOGMDOH@?$AAW?$AAe?$AAd?$AAn?$AAe?$AAs?$AAd?$AAa?$AAy?$AA?$AA@ 0000000180020320     libucrt:nlsdata.obj
 0002:00002338       ??_C@_1BC@HHMNLIHE@?$AAT?$AAh?$AAu?$AAr?$AAs?$AAd?$AAa?$AAy?$AA?$AA@ 0000000180020338     libucrt:nlsdata.obj
 0002:00002350       ??_C@_1O@PDICJHAG@?$AAF?$AAr?$AAi?$AAd?$AAa?$AAy?$AA?$AA@ 0000000180020350     libucrt:nlsdata.obj
 0002:00002360       ??_C@_1BC@ENMNNPAJ@?$AAS?$AAa?$AAt?$AAu?$AAr?$AAd?$AAa?$AAy?$AA?$AA@ 0000000180020360     libucrt:nlsdata.obj
 0002:00002378       ??_C@_17DKNBKCHM@?$AAJ?$AAa?$AAn?$AA?$AA@ 0000000180020378     libucrt:nlsdata.obj
 0002:00002380       ??_C@_17LMDJEKJN@?$AAF?$AAe?$AAb?$AA?$AA@ 0000000180020380     libucrt:nlsdata.obj
 0002:00002388       ??_C@_17CKNLEDEC@?$AAM?$AAa?$AAr?$AA?$AA@ 0000000180020388     libucrt:nlsdata.obj
 0002:00002390       ??_C@_17LFPOIHDD@?$AAA?$AAp?$AAr?$AA?$AA@ 0000000180020390     libucrt:nlsdata.obj
 0002:00002398       ??_C@_17PNNKMEED@?$AAM?$AAa?$AAy?$AA?$AA@ 0000000180020398     libucrt:nlsdata.obj
 0002:000023a0       ??_C@_17KCJGOCPB@?$AAJ?$AAu?$AAn?$AA?$AA@ 00000001800203a0     libucrt:nlsdata.obj
 0002:000023a8       ??_C@_17IJPCKHK@?$AAJ?$AAu?$AAl?$AA?$AA@ 00000001800203a8     libucrt:nlsdata.obj
 0002:000023b0       ??_C@_17ICPELBCN@?$AAA?$AAu?$AAg?$AA?$AA@ 00000001800203b0     libucrt:nlsdata.obj
 0002:000023b8       ??_C@_17HCHCOKMG@?$AAS?$AAe?$AAp?$AA?$AA@ 00000001800203b8     libucrt:nlsdata.obj
 0002:000023c0       ??_C@_17FNLKOI@?$AAO?$AAc?$AAt?$AA?$AA@ 00000001800203c0     libucrt:nlsdata.obj
 0002:000023c8       ??_C@_17BBDMLCIG@?$AAN?$AAo?$AAv?$AA?$AA@ 00000001800203c8     libucrt:nlsdata.obj
 0002:000023d0       ??_C@_17EGKACKIF@?$AAD?$AAe?$AAc?$AA?$AA@ 00000001800203d0     libucrt:nlsdata.obj
 0002:000023d8       ??_C@_1BA@EFMEIEBA@?$AAJ?$AAa?$AAn?$AAu?$AAa?$AAr?$AAy?$AA?$AA@ 00000001800203d8     libucrt:nlsdata.obj
 0002:000023e8       ??_C@_1BC@JGDDFFAM@?$AAF?$AAe?$AAb?$AAr?$AAu?$AAa?$AAr?$AAy?$AA?$AA@ 00000001800203e8     libucrt:nlsdata.obj
 0002:00002400       ??_C@_1M@IKEENEDF@?$AAM?$AAa?$AAr?$AAc?$AAh?$AA?$AA@ 0000000180020400     libucrt:nlsdata.obj
 0002:00002410       ??_C@_1M@GJNLMHFD@?$AAA?$AAp?$AAr?$AAi?$AAl?$AA?$AA@ 0000000180020410     libucrt:nlsdata.obj
 0002:00002420       ??_C@_19EPFLPGAP@?$AAJ?$AAu?$AAn?$AAe?$AA?$AA@ 0000000180020420     libucrt:nlsdata.obj
 0002:00002430       ??_C@_19BIFMLPCD@?$AAJ?$AAu?$AAl?$AAy?$AA?$AA@ 0000000180020430     libucrt:nlsdata.obj
 0002:00002440       ??_C@_1O@PAHLKOAC@?$AAA?$AAu?$AAg?$AAu?$AAs?$AAt?$AA?$AA@ 0000000180020440     libucrt:nlsdata.obj
 0002:00002450       ??_C@_1BE@DKAAMBJL@?$AAS?$AAe?$AAp?$AAt?$AAe?$AAm?$AAb?$AAe?$AAr?$AA?$AA@ 0000000180020450     libucrt:nlsdata.obj
 0002:00002468       ??_C@_1BA@EPANDLNG@?$AAO?$AAc?$AAt?$AAo?$AAb?$AAe?$AAr?$AA?$AA@ 0000000180020468     libucrt:nlsdata.obj
 0002:00002478       ??_C@_1BC@BGLIFPF@?$AAN?$AAo?$AAv?$AAe?$AAm?$AAb?$AAe?$AAr?$AA?$AA@ 0000000180020478     libucrt:nlsdata.obj
 0002:00002490       ??_C@_1BC@FEMKIFH@?$AAD?$AAe?$AAc?$AAe?$AAm?$AAb?$AAe?$AAr?$AA?$AA@ 0000000180020490     libucrt:nlsdata.obj
 0002:000024a4       ??_C@_15ODEHAHHF@?$AAA?$AAM?$AA?$AA@ 00000001800204a4     libucrt:nlsdata.obj
 0002:000024ac       ??_C@_15CLMNNGEL@?$AAP?$AAM?$AA?$AA@ 00000001800204ac     libucrt:nlsdata.obj
 0002:000024b8       ??_C@_1BC@IEBCMHCM@?$AAM?$AAM?$AA?1?$AAd?$AAd?$AA?1?$AAy?$AAy?$AA?$AA@ 00000001800204b8     libucrt:nlsdata.obj
 0002:000024d0       ??_C@_1CI@KNAKOEBC@?$AAd?$AAd?$AAd?$AAd?$AA?0?$AA?5?$AAM?$AAM?$AAM?$AAM?$AA?5?$AAd?$AAd?$AA?0?$AA?5?$AAy?$AAy?$AAy?$AAy?$AA?$AA@ 00000001800204d0     libucrt:nlsdata.obj
 0002:000024f8       ??_C@_1BC@GDGBMEMK@?$AAH?$AAH?$AA?3?$AAm?$AAm?$AA?3?$AAs?$AAs?$AA?$AA@ 00000001800204f8     libucrt:nlsdata.obj
 0002:00002510       ??_C@_1M@BMHNFIME@?$AAe?$AAn?$AA?9?$AAU?$AAS?$AA?$AA@ 0000000180020510     libucrt:nlsdata.obj
 0002:00002540       ??_C@_1M@HPNHIDJI@?$AAj?$AAa?$AA?9?$AAJ?$AAP?$AA?$AA@ 0000000180020540     libucrt:mbctype.obj
 0002:00002550       ??_C@_1M@BIBDDEMK@?$AAz?$AAh?$AA?9?$AAC?$AAN?$AA?$AA@ 0000000180020550     libucrt:mbctype.obj
 0002:00002560       ??_C@_1M@JLOOOEGK@?$AAk?$AAo?$AA?9?$AAK?$AAR?$AA?$AA@ 0000000180020560     libucrt:mbctype.obj
 0002:00002570       ??_C@_1M@CLNBBOPM@?$AAz?$AAh?$AA?9?$AAT?$AAW?$AA?$AA@ 0000000180020570     libucrt:mbctype.obj
 0002:00002580       __newctype                 0000000180020580     libucrt:ctype.obj
 0002:00002880       __newclmap                 0000000180020880     libucrt:ctype.obj
 0002:00002a00       __newcumap                 0000000180020a00     libucrt:ctype.obj
 0002:00002b80       _wctype                    0000000180020b80     libucrt:ctype.obj
 0002:00003bd0       ??_C@_15EMKDOKLE@?$AAa?$AAr?$AA?$AA@ 0000000180021bd0     libucrt:lcidtoname_downlevel.obj
 0002:00003bd8       ??_C@_15KNPADPLH@?$AAb?$AAg?$AA?$AA@ 0000000180021bd8     libucrt:lcidtoname_downlevel.obj
 0002:00003be0       ??_C@_15EDMHLDMO@?$AAc?$AAa?$AA?$AA@ 0000000180021be0     libucrt:lcidtoname_downlevel.obj
 0002:00003be8       ??_C@_1O@BPEAJADD@?$AAz?$AAh?$AA?9?$AAC?$AAH?$AAS?$AA?$AA@ 0000000180021be8     libucrt:lcidtoname_downlevel.obj
 0002:00003bf8       ??_C@_15LJNHCMNK@?$AAc?$AAs?$AA?$AA@ 0000000180021bf8     libucrt:lcidtoname_downlevel.obj
 0002:00003c00       ??_C@_15FOMCIDHG@?$AAd?$AAa?$AA?$AA@ 0000000180021c00     libucrt:lcidtoname_downlevel.obj
 0002:00003c08       ??_C@_15NBKABECB@?$AAd?$AAe?$AA?$AA@ 0000000180021c08     libucrt:lcidtoname_downlevel.obj
 0002:00003c10       ??_C@_15GHPEIIAO@?$AAe?$AAl?$AA?$AA@ 0000000180021c10     libucrt:lcidtoname_downlevel.obj
 0002:00003c18       ??_C@_15MNPNEAIF@?$AAe?$AAn?$AA?$AA@ 0000000180021c18     libucrt:lcidtoname_downlevel.obj
 0002:00003c20       ??_C@_15GPIOMPMH@?$AAe?$AAs?$AA?$AA@ 0000000180021c20     libucrt:lcidtoname_downlevel.obj
 0002:00003c28       ??_C@_15NGLOAKJC@?$AAf?$AAi?$AA?$AA@ 0000000180021c28     libucrt:lcidtoname_downlevel.obj
 0002:00003c30       ??_C@_15FBKGNKAM@?$AAf?$AAr?$AA?$AA@ 0000000180021c30     libucrt:lcidtoname_downlevel.obj
 0002:00003c38       ??_C@_15KGGCNEFK@?$AAh?$AAe?$AA?$AA@ 0000000180021c38     libucrt:lcidtoname_downlevel.obj
 0002:00003c40       ??_C@_15PGHLIDMF@?$AAh?$AAu?$AA?$AA@ 0000000180021c40     libucrt:lcidtoname_downlevel.obj
 0002:00003c48       ??_C@_15BIEMAPLM@?$AAi?$AAs?$AA?$AA@ 0000000180021c48     libucrt:lcidtoname_downlevel.obj
 0002:00003c50       ??_C@_15IFJLDHAF@?$AAi?$AAt?$AA?$AA@ 0000000180021c50     libucrt:lcidtoname_downlevel.obj
 0002:00003c58       ??_C@_15GEMIOCAG@?$AAj?$AAa?$AA?$AA@ 0000000180021c58     libucrt:lcidtoname_downlevel.obj
 0002:00003c60       ??_C@_15EPELEGJA@?$AAk?$AAo?$AA?$AA@ 0000000180021c60     libucrt:lcidtoname_downlevel.obj
 0002:00003c68       ??_C@_15NDDHIMN@?$AAn?$AAl?$AA?$AA@ 0000000180021c68     libucrt:lcidtoname_downlevel.obj
 0002:00003c70       ??_C@_15BPIGNHCD@?$AAn?$AAo?$AA?$AA@ 0000000180021c70     libucrt:lcidtoname_downlevel.obj
 0002:00003c78       ??_C@_15DEOPBLCG@?$AAp?$AAl?$AA?$AA@ 0000000180021c78     libucrt:lcidtoname_downlevel.obj
 0002:00003c80       ??_C@_15KBECGEFG@?$AAp?$AAt?$AA?$AA@ 0000000180021c80     libucrt:lcidtoname_downlevel.obj
 0002:00003c88       ??_C@_15GLJCBFMD@?$AAr?$AAo?$AA?$AA@ 0000000180021c88     libucrt:lcidtoname_downlevel.obj
 0002:00003c90       ??_C@_15FEDGKCDI@?$AAr?$AAu?$AA?$AA@ 0000000180021c90     libucrt:lcidtoname_downlevel.obj
 0002:00003c98       ??_C@_15GLKMLLHM@?$AAh?$AAr?$AA?$AA@ 0000000180021c98     libucrt:lcidtoname_downlevel.obj
 0002:00003ca0       ??_C@_15CPKMFBDB@?$AAs?$AAk?$AA?$AA@ 0000000180021ca0     libucrt:lcidtoname_downlevel.obj
 0002:00003ca8       ??_C@_15BAAIOGMK@?$AAs?$AAq?$AA?$AA@ 0000000180021ca8     libucrt:lcidtoname_downlevel.obj
 0002:00003cb0       ??_C@_15INNPNOHD@?$AAs?$AAv?$AA?$AA@ 0000000180021cb0     libucrt:lcidtoname_downlevel.obj
 0002:00003cb8       ??_C@_15CABMMOGH@?$AAt?$AAh?$AA?$AA@ 0000000180021cb8     libucrt:lcidtoname_downlevel.obj
 0002:00003cc0       ??_C@_15BPLIHJJM@?$AAt?$AAr?$AA?$AA@ 0000000180021cc0     libucrt:lcidtoname_downlevel.obj
 0002:00003cc8       ??_C@_15NEOEKKDJ@?$AAu?$AAr?$AA?$AA@ 0000000180021cc8     libucrt:lcidtoname_downlevel.obj
 0002:00003cd0       ??_C@_15NFICGAJK@?$AAi?$AAd?$AA?$AA@ 0000000180021cd0     libucrt:lcidtoname_downlevel.obj
 0002:00003cd8       ??_C@_15PJPFLCCM@?$AAu?$AAk?$AA?$AA@ 0000000180021cd8     libucrt:lcidtoname_downlevel.obj
 0002:00003ce0       ??_C@_15HPJPHDM@?$AAb?$AAe?$AA?$AA@ 0000000180021ce0     libucrt:lcidtoname_downlevel.obj
 0002:00003ce8       ??_C@_15LCHLGJII@?$AAs?$AAl?$AA?$AA@ 0000000180021ce8     libucrt:lcidtoname_downlevel.obj
 0002:00003cf0       ??_C@_15PCFJPHHO@?$AAe?$AAt?$AA?$AA@ 0000000180021cf0     libucrt:lcidtoname_downlevel.obj
 0002:00003cf8       ??_C@_15HPFPGODN@?$AAl?$AAv?$AA?$AA@ 0000000180021cf8     libucrt:lcidtoname_downlevel.obj
 0002:00003d00       ??_C@_15NFFGKGLG@?$AAl?$AAt?$AA?$AA@ 0000000180021d00     libucrt:lcidtoname_downlevel.obj
 0002:00003d08       ??_C@_15BDAKCCHN@?$AAf?$AAa?$AA?$AA@ 0000000180021d08     libucrt:lcidtoname_downlevel.obj
 0002:00003d10       ??_C@_15NFGIAIAJ@?$AAv?$AAi?$AA?$AA@ 0000000180021d10     libucrt:lcidtoname_downlevel.obj
 0002:00003d18       ??_C@_15LMKNDMHN@?$AAh?$AAy?$AA?$AA@ 0000000180021d18     libucrt:lcidtoname_downlevel.obj
 0002:00003d20       ??_C@_15IJBHMCFL@?$AAa?$AAz?$AA?$AA@ 0000000180021d20     libucrt:lcidtoname_downlevel.obj
 0002:00003d28       ??_C@_15EKOFJABL@?$AAe?$AAu?$AA?$AA@ 0000000180021d28     libucrt:lcidtoname_downlevel.obj
 0002:00003d30       ??_C@_15BGHADCNK@?$AAm?$AAk?$AA?$AA@ 0000000180021d30     libucrt:lcidtoname_downlevel.obj
 0002:00003d38       ??_C@_15JDNICKHM@?$AAa?$AAf?$AA?$AA@ 0000000180021d38     libucrt:lcidtoname_downlevel.obj
 0002:00003d40       ??_C@_15KPJEDBKD@?$AAk?$AAa?$AA?$AA@ 0000000180021d40     libucrt:lcidtoname_downlevel.obj
 0002:00003d48       ??_C@_15PDNFFFEO@?$AAf?$AAo?$AA?$AA@ 0000000180021d48     libucrt:lcidtoname_downlevel.obj
 0002:00003d50       ??_C@_15OMLEGLOC@?$AAh?$AAi?$AA?$AA@ 0000000180021d50     libucrt:lcidtoname_downlevel.obj
 0002:00003d58       ??_C@_15IDNNENKK@?$AAm?$AAs?$AA?$AA@ 0000000180021d58     libucrt:lcidtoname_downlevel.obj
 0002:00003d60       ??_C@_15MACJNBMH@?$AAk?$AAk?$AA?$AA@ 0000000180021d60     libucrt:lcidtoname_downlevel.obj
 0002:00003d68       ??_C@_15DKDJEOND@?$AAk?$AAy?$AA?$AA@ 0000000180021d68     libucrt:lcidtoname_downlevel.obj
 0002:00003d70       ??_C@_15DFGDLJBG@?$AAs?$AAw?$AA?$AA@ 0000000180021d70     libucrt:lcidtoname_downlevel.obj
 0002:00003d78       ??_C@_15BBFAICNG@?$AAu?$AAz?$AA?$AA@ 0000000180021d78     libucrt:lcidtoname_downlevel.obj
 0002:00003d80       ??_C@_15DKNDCGEA@?$AAt?$AAt?$AA?$AA@ 0000000180021d80     libucrt:lcidtoname_downlevel.obj
 0002:00003d88       ??_C@_15MGIFMDPL@?$AAp?$AAa?$AA?$AA@ 0000000180021d88     libucrt:lcidtoname_downlevel.obj
 0002:00003d90       ??_C@_15HCNDBBA@?$AAg?$AAu?$AA?$AA@ 0000000180021d90     libucrt:lcidtoname_downlevel.obj
 0002:00003d98       ??_C@_15FNBEIBON@?$AAt?$AAa?$AA?$AA@ 0000000180021d98     libucrt:lcidtoname_downlevel.obj
 0002:00003da0       ??_C@_15NCHGBGLK@?$AAt?$AAe?$AA?$AA@ 0000000180021da0     libucrt:lcidtoname_downlevel.obj
 0002:00003da8       ??_C@_15PHPHCBPF@?$AAk?$AAn?$AA?$AA@ 0000000180021da8     libucrt:lcidtoname_downlevel.obj
 0002:00003db0       ??_C@_15DLGBCKMP@?$AAm?$AAr?$AA?$AA@ 0000000180021db0     libucrt:lcidtoname_downlevel.obj
 0002:00003db8       ??_C@_15EABBLBFF@?$AAs?$AAa?$AA?$AA@ 0000000180021db8     libucrt:lcidtoname_downlevel.obj
 0002:00003dc0       ??_C@_15CBKOMCOI@?$AAm?$AAn?$AA?$AA@ 0000000180021dc0     libucrt:lcidtoname_downlevel.obj
 0002:00003dc8       ??_C@_15CKDMCJAF@?$AAg?$AAl?$AA?$AA@ 0000000180021dc8     libucrt:lcidtoname_downlevel.obj
 0002:00003dd0       ??_C@_17CNJFBPG@?$AAk?$AAo?$AAk?$AA?$AA@ 0000000180021dd0     libucrt:lcidtoname_downlevel.obj
 0002:00003dd8       ??_C@_17FFBJICPL@?$AAs?$AAy?$AAr?$AA?$AA@ 0000000180021dd8     libucrt:lcidtoname_downlevel.obj
 0002:00003de0       ??_C@_17KPNDCPAF@?$AAd?$AAi?$AAv?$AA?$AA@ 0000000180021de0     libucrt:lcidtoname_downlevel.obj
 0002:00003de8       ??_C@_11LOCGONAA@?$AA?$AA@ 0000000180021de8     libucrt:lcidtoname_downlevel.obj
 0002:00003df0       ??_C@_1M@OKAHONE@?$AAa?$AAr?$AA?9?$AAS?$AAA?$AA?$AA@ 0000000180021df0     libucrt:lcidtoname_downlevel.obj
 0002:00003e00       ??_C@_1M@FFFIGIGK@?$AAb?$AAg?$AA?9?$AAB?$AAG?$AA?$AA@ 0000000180021e00     libucrt:lcidtoname_downlevel.obj
 0002:00003e10       ??_C@_1M@BJNKEDC@?$AAc?$AAa?$AA?9?$AAE?$AAS?$AA?$AA@ 0000000180021e10     libucrt:lcidtoname_downlevel.obj
 0002:00003e20       ??_C@_1M@IJJHFJHA@?$AAc?$AAs?$AA?9?$AAC?$AAZ?$AA?$AA@ 0000000180021e20     libucrt:lcidtoname_downlevel.obj
 0002:00003e30       ??_C@_1M@CLPEOBGI@?$AAd?$AAa?$AA?9?$AAD?$AAK?$AA?$AA@ 0000000180021e30     libucrt:lcidtoname_downlevel.obj
 0002:00003e40       ??_C@_1M@MCMADGCB@?$AAd?$AAe?$AA?9?$AAD?$AAE?$AA?$AA@ 0000000180021e40     libucrt:lcidtoname_downlevel.obj
 0002:00003e50       ??_C@_1M@OOCKEMAM@?$AAe?$AAl?$AA?9?$AAG?$AAR?$AA?$AA@ 0000000180021e50     libucrt:lcidtoname_downlevel.obj
 0002:00003e60       ??_C@_1M@DDNJFGID@?$AAf?$AAi?$AA?9?$AAF?$AAI?$AA?$AA@ 0000000180021e60     libucrt:lcidtoname_downlevel.obj
 0002:00003e70       ??_C@_1M@GLIPPMAC@?$AAf?$AAr?$AA?9?$AAF?$AAR?$AA?$AA@ 0000000180021e70     libucrt:lcidtoname_downlevel.obj
 0002:00003e80       ??_C@_1M@GFMCHPE@?$AAh?$AAe?$AA?9?$AAI?$AAL?$AA?$AA@ 0000000180021e80     libucrt:lcidtoname_downlevel.obj
 0002:00003e90       ??_C@_1M@MHLPGNKM@?$AAh?$AAu?$AA?9?$AAH?$AAU?$AA?$AA@ 0000000180021e90     libucrt:lcidtoname_downlevel.obj
 0002:00003ea0       ??_C@_1M@LPDDNNPN@?$AAi?$AAs?$AA?9?$AAI?$AAS?$AA?$AA@ 0000000180021ea0     libucrt:lcidtoname_downlevel.obj
 0002:00003eb0       ??_C@_1M@MADIPODN@?$AAi?$AAt?$AA?9?$AAI?$AAT?$AA?$AA@ 0000000180021eb0     libucrt:lcidtoname_downlevel.obj
 0002:00003ec0       ??_C@_1M@IHBJJGG@?$AAn?$AAl?$AA?9?$AAN?$AAL?$AA?$AA@ 0000000180021ec0     libucrt:lcidtoname_downlevel.obj
 0002:00003ed0       ??_C@_1M@EANAGDL@?$AAn?$AAb?$AA?9?$AAN?$AAO?$AA?$AA@ 0000000180021ed0     libucrt:lcidtoname_downlevel.obj
 0002:00003ee0       ??_C@_1M@NEIEMEGP@?$AAp?$AAl?$AA?9?$AAP?$AAL?$AA?$AA@ 0000000180021ee0     libucrt:lcidtoname_downlevel.obj
 0002:00003ef0       ??_C@_1M@BOCFIGEP@?$AAp?$AAt?$AA?9?$AAB?$AAR?$AA?$AA@ 0000000180021ef0     libucrt:lcidtoname_downlevel.obj
 0002:00003f00       ??_C@_1M@IMPFOPBG@?$AAr?$AAo?$AA?9?$AAR?$AAO?$AA?$AA@ 0000000180021f00     libucrt:lcidtoname_downlevel.obj
 0002:00003f10       ??_C@_1M@IDNNEJMM@?$AAr?$AAu?$AA?9?$AAR?$AAU?$AA?$AA@ 0000000180021f10     libucrt:lcidtoname_downlevel.obj
 0002:00003f20       ??_C@_1M@LILEEOGM@?$AAh?$AAr?$AA?9?$AAH?$AAR?$AA?$AA@ 0000000180021f20     libucrt:lcidtoname_downlevel.obj
 0002:00003f30       ??_C@_1M@FKIFEHPB@?$AAs?$AAk?$AA?9?$AAS?$AAK?$AA?$AA@ 0000000180021f30     libucrt:lcidtoname_downlevel.obj
 0002:00003f40       ??_C@_1M@LJMAMNPJ@?$AAs?$AAq?$AA?9?$AAA?$AAL?$AA?$AA@ 0000000180021f40     libucrt:lcidtoname_downlevel.obj
 0002:00003f50       ??_C@_1M@GIAKDKJK@?$AAs?$AAv?$AA?9?$AAS?$AAE?$AA?$AA@ 0000000180021f50     libucrt:lcidtoname_downlevel.obj
 0002:00003f60       ??_C@_1M@MKJKIKCL@?$AAt?$AAh?$AA?9?$AAT?$AAH?$AA?$AA@ 0000000180021f60     libucrt:lcidtoname_downlevel.obj
 0002:00003f70       ??_C@_1M@MFLCCMPB@?$AAt?$AAr?$AA?9?$AAT?$AAR?$AA?$AA@ 0000000180021f70     libucrt:lcidtoname_downlevel.obj
 0002:00003f80       ??_C@_1M@OIJHDKJN@?$AAu?$AAr?$AA?9?$AAP?$AAK?$AA?$AA@ 0000000180021f80     libucrt:lcidtoname_downlevel.obj
 0002:00003f90       ??_C@_1M@LHIPCIEK@?$AAi?$AAd?$AA?9?$AAI?$AAD?$AA?$AA@ 0000000180021f90     libucrt:lcidtoname_downlevel.obj
 0002:00003fa0       ??_C@_1M@MFMOBGI@?$AAu?$AAk?$AA?9?$AAU?$AAA?$AA?$AA@ 0000000180021fa0     libucrt:lcidtoname_downlevel.obj
 0002:00003fb0       ??_C@_1M@OBGLJIPL@?$AAb?$AAe?$AA?9?$AAB?$AAY?$AA?$AA@ 0000000180021fb0     libucrt:lcidtoname_downlevel.obj
 0002:00003fc0       ??_C@_1M@BCFAJEAD@?$AAs?$AAl?$AA?9?$AAS?$AAI?$AA?$AA@ 0000000180021fc0     libucrt:lcidtoname_downlevel.obj
 0002:00003fd0       ??_C@_1M@FKFFEDDN@?$AAe?$AAt?$AA?9?$AAE?$AAE?$AA?$AA@ 0000000180021fd0     libucrt:lcidtoname_downlevel.obj
 0002:00003fe0       ??_C@_1M@KGKKAACI@?$AAl?$AAv?$AA?9?$AAL?$AAV?$AA?$AA@ 0000000180021fe0     libucrt:lcidtoname_downlevel.obj
 0002:00003ff0       ??_C@_1M@IFGBIJO@?$AAl?$AAt?$AA?9?$AAL?$AAT?$AA?$AA@ 0000000180021ff0     libucrt:lcidtoname_downlevel.obj
 0002:00004000       ??_C@_1M@FGEAHEDM@?$AAf?$AAa?$AA?9?$AAI?$AAR?$AA?$AA@ 0000000180022000     libucrt:lcidtoname_downlevel.obj
 0002:00004010       ??_C@_1M@KBMAIBFN@?$AAv?$AAi?$AA?9?$AAV?$AAN?$AA?$AA@ 0000000180022010     libucrt:lcidtoname_downlevel.obj
 0002:00004020       ??_C@_1M@GPCBKDJK@?$AAh?$AAy?$AA?9?$AAA?$AAM?$AA?$AA@ 0000000180022020     libucrt:lcidtoname_downlevel.obj
 0002:00004030       ??_C@_1BG@BECMDDJB@?$AAa?$AAz?$AA?9?$AAA?$AAZ?$AA?9?$AAL?$AAa?$AAt?$AAn?$AA?$AA@ 0000000180022030     libucrt:lcidtoname_downlevel.obj
 0002:00004048       ??_C@_1M@MAOFCAEA@?$AAe?$AAu?$AA?9?$AAE?$AAS?$AA?$AA@ 0000000180022048     libucrt:lcidtoname_downlevel.obj
 0002:00004058       ??_C@_1M@IGHABKPI@?$AAm?$AAk?$AA?9?$AAM?$AAK?$AA?$AA@ 0000000180022058     libucrt:lcidtoname_downlevel.obj
 0002:00004068       ??_C@_1M@IAIGNEJG@?$AAt?$AAn?$AA?9?$AAZ?$AAA?$AA?$AA@ 0000000180022068     libucrt:lcidtoname_downlevel.obj
 0002:00004078       ??_C@_1M@IIJCOJFA@?$AAx?$AAh?$AA?9?$AAZ?$AAA?$AA?$AA@ 0000000180022078     libucrt:lcidtoname_downlevel.obj
 0002:00004088       ??_C@_1M@LGPJHNJH@?$AAz?$AAu?$AA?9?$AAZ?$AAA?$AA?$AA@ 0000000180022088     libucrt:lcidtoname_downlevel.obj
 0002:00004098       ??_C@_1M@HOKAOIO@?$AAa?$AAf?$AA?9?$AAZ?$AAA?$AA?$AA@ 0000000180022098     libucrt:lcidtoname_downlevel.obj
 0002:000040a8       ??_C@_1M@DPCLHLIE@?$AAk?$AAa?$AA?9?$AAG?$AAE?$AA?$AA@ 00000001800220a8     libucrt:lcidtoname_downlevel.obj
 0002:000040b8       ??_C@_1M@BLKMHJBI@?$AAf?$AAo?$AA?9?$AAF?$AAO?$AA?$AA@ 00000001800220b8     libucrt:lcidtoname_downlevel.obj
 0002:000040c8       ??_C@_1M@LGGJAPPB@?$AAh?$AAi?$AA?9?$AAI?$AAN?$AA?$AA@ 00000001800220c8     libucrt:lcidtoname_downlevel.obj
 0002:000040d8       ??_C@_1M@FIKPIHFE@?$AAm?$AAt?$AA?9?$AAM?$AAT?$AA?$AA@ 00000001800220d8     libucrt:lcidtoname_downlevel.obj
 0002:000040e8       ??_C@_1M@HEGGPBFA@?$AAs?$AAe?$AA?9?$AAN?$AAO?$AA?$AA@ 00000001800220e8     libucrt:lcidtoname_downlevel.obj
 0002:000040f8       ??_C@_1M@EIBJEEPA@?$AAm?$AAs?$AA?9?$AAM?$AAY?$AA?$AA@ 00000001800220f8     libucrt:lcidtoname_downlevel.obj
 0002:00004108       ??_C@_1M@FHLBGMPP@?$AAk?$AAk?$AA?9?$AAK?$AAZ?$AA?$AA@ 0000000180022108     libucrt:lcidtoname_downlevel.obj
 0002:00004118       ??_C@_1M@NGJJLCGI@?$AAk?$AAy?$AA?9?$AAK?$AAG?$AA?$AA@ 0000000180022118     libucrt:lcidtoname_downlevel.obj
 0002:00004128       ??_C@_1M@GIENNBFC@?$AAs?$AAw?$AA?9?$AAK?$AAE?$AA?$AA@ 0000000180022128     libucrt:lcidtoname_downlevel.obj
 0002:00004138       ??_C@_1BG@NDGMJIMJ@?$AAu?$AAz?$AA?9?$AAU?$AAZ?$AA?9?$AAL?$AAa?$AAt?$AAn?$AA?$AA@ 0000000180022138     libucrt:lcidtoname_downlevel.obj
 0002:00004150       ??_C@_1M@IDCCIHBC@?$AAt?$AAt?$AA?9?$AAR?$AAU?$AA?$AA@ 0000000180022150     libucrt:lcidtoname_downlevel.obj
 0002:00004160       ??_C@_1M@LOICPMOJ@?$AAb?$AAn?$AA?9?$AAI?$AAN?$AA?$AA@ 0000000180022160     libucrt:lcidtoname_downlevel.obj
 0002:00004170       ??_C@_1M@KPKKNEAH@?$AAp?$AAa?$AA?9?$AAI?$AAN?$AA?$AA@ 0000000180022170     libucrt:lcidtoname_downlevel.obj
 0002:00004180       ??_C@_1M@PJGPPBOG@?$AAg?$AAu?$AA?9?$AAI?$AAN?$AA?$AA@ 0000000180022180     libucrt:lcidtoname_downlevel.obj
 0002:00004190       ??_C@_1M@KMKMOPHI@?$AAt?$AAa?$AA?9?$AAI?$AAN?$AA?$AA@ 0000000180022190     libucrt:lcidtoname_downlevel.obj
 0002:000041a0       ??_C@_1M@KFEHEPAC@?$AAt?$AAe?$AA?9?$AAI?$AAN?$AA?$AA@ 00000001800221a0     libucrt:lcidtoname_downlevel.obj
 0002:000041b0       ??_C@_1M@CDCLMGHI@?$AAk?$AAn?$AA?9?$AAI?$AAN?$AA?$AA@ 00000001800221b0     libucrt:lcidtoname_downlevel.obj
 0002:000041c0       ??_C@_1M@MIODLDKF@?$AAm?$AAl?$AA?9?$AAI?$AAN?$AA?$AA@ 00000001800221c0     libucrt:lcidtoname_downlevel.obj
 0002:000041d0       ??_C@_1M@PBIEACPO@?$AAm?$AAr?$AA?9?$AAI?$AAN?$AA?$AA@ 00000001800221d0     libucrt:lcidtoname_downlevel.obj
 0002:000041e0       ??_C@_1M@NIDEAGPH@?$AAs?$AAa?$AA?9?$AAI?$AAN?$AA?$AA@ 00000001800221e0     libucrt:lcidtoname_downlevel.obj
 0002:000041f0       ??_C@_1M@FHIHCBIO@?$AAm?$AAn?$AA?9?$AAM?$AAN?$AA?$AA@ 00000001800221f0     libucrt:lcidtoname_downlevel.obj
 0002:00004200       ??_C@_1M@JAIJPENP@?$AAc?$AAy?$AA?9?$AAG?$AAB?$AA?$AA@ 0000000180022200     libucrt:lcidtoname_downlevel.obj
 0002:00004210       ??_C@_1M@PHGFBEPN@?$AAg?$AAl?$AA?9?$AAE?$AAS?$AA?$AA@ 0000000180022210     libucrt:lcidtoname_downlevel.obj
 0002:00004220       ??_C@_1O@KPIPDNCP@?$AAk?$AAo?$AAk?$AA?9?$AAI?$AAN?$AA?$AA@ 0000000180022220     libucrt:lcidtoname_downlevel.obj
 0002:00004230       ??_C@_1O@KNHJLDJA@?$AAs?$AAy?$AAr?$AA?9?$AAS?$AAY?$AA?$AA@ 0000000180022230     libucrt:lcidtoname_downlevel.obj
 0002:00004240       ??_C@_1O@MKEKBLAH@?$AAd?$AAi?$AAv?$AA?9?$AAM?$AAV?$AA?$AA@ 0000000180022240     libucrt:lcidtoname_downlevel.obj
 0002:00004250       ??_C@_1O@OHDCKDDF@?$AAq?$AAu?$AAz?$AA?9?$AAB?$AAO?$AA?$AA@ 0000000180022250     libucrt:lcidtoname_downlevel.obj
 0002:00004260       ??_C@_1M@LEPJNLFD@?$AAn?$AAs?$AA?9?$AAZ?$AAA?$AA?$AA@ 0000000180022260     libucrt:lcidtoname_downlevel.obj
 0002:00004270       ??_C@_1M@OMLEIIJB@?$AAm?$AAi?$AA?9?$AAN?$AAZ?$AA?$AA@ 0000000180022270     libucrt:lcidtoname_downlevel.obj
 0002:00004280       ??_C@_1M@PMPEAILG@?$AAa?$AAr?$AA?9?$AAI?$AAQ?$AA?$AA@ 0000000180022280     libucrt:lcidtoname_downlevel.obj
 0002:00004290       ??_C@_1M@CNKPNOEE@?$AAd?$AAe?$AA?9?$AAC?$AAH?$AA?$AA@ 0000000180022290     libucrt:lcidtoname_downlevel.obj
 0002:000042a0       ??_C@_1M@LKMGMLKO@?$AAe?$AAn?$AA?9?$AAG?$AAB?$AA?$AA@ 00000001800222a0     libucrt:lcidtoname_downlevel.obj
 0002:000042b0       ??_C@_1M@PGKJFFGL@?$AAe?$AAs?$AA?9?$AAM?$AAX?$AA?$AA@ 00000001800222b0     libucrt:lcidtoname_downlevel.obj
 0002:000042c0       ??_C@_1M@DNNANBDC@?$AAf?$AAr?$AA?9?$AAB?$AAE?$AA?$AA@ 00000001800222c0     libucrt:lcidtoname_downlevel.obj
 0002:000042d0       ??_C@_1M@HLGMDFHM@?$AAi?$AAt?$AA?9?$AAC?$AAH?$AA?$AA@ 00000001800222d0     libucrt:lcidtoname_downlevel.obj
 0002:000042e0       ??_C@_1M@CLLBGJH@?$AAn?$AAl?$AA?9?$AAB?$AAE?$AA?$AA@ 00000001800222e0     libucrt:lcidtoname_downlevel.obj
 0002:000042f0       ??_C@_1M@BODBOGLF@?$AAn?$AAn?$AA?9?$AAN?$AAO?$AA?$AA@ 00000001800222f0     libucrt:lcidtoname_downlevel.obj
 0002:00004300       ??_C@_1M@HFFAHKAD@?$AAp?$AAt?$AA?9?$AAP?$AAT?$AA?$AA@ 0000000180022300     libucrt:lcidtoname_downlevel.obj
 0002:00004310       ??_C@_1BG@LNOAKHIE@?$AAs?$AAr?$AA?9?$AAS?$AAP?$AA?9?$AAL?$AAa?$AAt?$AAn?$AA?$AA@ 0000000180022310     libucrt:lcidtoname_downlevel.obj
 0002:00004328       ??_C@_1M@HBMHBGAK@?$AAs?$AAv?$AA?9?$AAF?$AAI?$AA?$AA@ 0000000180022328     libucrt:lcidtoname_downlevel.obj
 0002:00004338       ??_C@_1BG@DGCJGJBE@?$AAa?$AAz?$AA?9?$AAA?$AAZ?$AA?9?$AAC?$AAy?$AAr?$AAl?$AA?$AA@ 0000000180022338     libucrt:lcidtoname_downlevel.obj
 0002:00004350       ??_C@_1M@KEJDAAHB@?$AAs?$AAe?$AA?9?$AAS?$AAE?$AA?$AA@ 0000000180022350     libucrt:lcidtoname_downlevel.obj
 0002:00004360       ??_C@_1M@HEIBJJAD@?$AAm?$AAs?$AA?9?$AAB?$AAN?$AA?$AA@ 0000000180022360     libucrt:lcidtoname_downlevel.obj
 0002:00004370       ??_C@_1BG@PBGJMCEM@?$AAu?$AAz?$AA?9?$AAU?$AAZ?$AA?9?$AAC?$AAy?$AAr?$AAl?$AA?$AA@ 0000000180022370     libucrt:lcidtoname_downlevel.obj
 0002:00004388       ??_C@_1O@LAOBCMDF@?$AAq?$AAu?$AAz?$AA?9?$AAE?$AAC?$AA?$AA@ 0000000180022388     libucrt:lcidtoname_downlevel.obj
 0002:00004398       ??_C@_1M@POEEMAIO@?$AAa?$AAr?$AA?9?$AAE?$AAG?$AA?$AA@ 0000000180022398     libucrt:lcidtoname_downlevel.obj
 0002:000043a8       ??_C@_1M@EFAKDEDL@?$AAz?$AAh?$AA?9?$AAH?$AAK?$AA?$AA@ 00000001800223a8     libucrt:lcidtoname_downlevel.obj
 0002:000043b8       ??_C@_1M@HKKIJHGI@?$AAd?$AAe?$AA?9?$AAA?$AAT?$AA?$AA@ 00000001800223b8     libucrt:lcidtoname_downlevel.obj
 0002:000043c8       ??_C@_1M@KBFBEHJF@?$AAe?$AAn?$AA?9?$AAA?$AAU?$AA?$AA@ 00000001800223c8     libucrt:lcidtoname_downlevel.obj
 0002:000043d8       ??_C@_1M@MNPLFAAH@?$AAe?$AAs?$AA?9?$AAE?$AAS?$AA?$AA@ 00000001800223d8     libucrt:lcidtoname_downlevel.obj
 0002:000043e8       ??_C@_1M@HJOOJFMA@?$AAf?$AAr?$AA?9?$AAC?$AAA?$AA?$AA@ 00000001800223e8     libucrt:lcidtoname_downlevel.obj
 0002:000043f8       ??_C@_1BG@JPOFPNAB@?$AAs?$AAr?$AA?9?$AAS?$AAP?$AA?9?$AAC?$AAy?$AAr?$AAl?$AA?$AA@ 00000001800223f8     libucrt:lcidtoname_downlevel.obj
 0002:00004410       ??_C@_1M@LNFOCMOB@?$AAs?$AAe?$AA?9?$AAF?$AAI?$AA?$AA@ 0000000180022410     libucrt:lcidtoname_downlevel.obj
 0002:00004420       ??_C@_1O@MGJBOAMB@?$AAq?$AAu?$AAz?$AA?9?$AAP?$AAE?$AA?$AA@ 0000000180022420     libucrt:lcidtoname_downlevel.obj
 0002:00004430       ??_C@_1M@GJINLBOK@?$AAa?$AAr?$AA?9?$AAL?$AAY?$AA?$AA@ 0000000180022430     libucrt:lcidtoname_downlevel.obj
 0002:00004440       ??_C@_1M@GGMNHJNL@?$AAz?$AAh?$AA?9?$AAS?$AAG?$AA?$AA@ 0000000180022440     libucrt:lcidtoname_downlevel.obj
 0002:00004450       ??_C@_1M@HOIKODND@?$AAd?$AAe?$AA?9?$AAL?$AAU?$AA?$AA@ 0000000180022450     libucrt:lcidtoname_downlevel.obj
 0002:00004460       ??_C@_1M@DDOCCGFG@?$AAe?$AAn?$AA?9?$AAC?$AAA?$AA?$AA@ 0000000180022460     libucrt:lcidtoname_downlevel.obj
 0002:00004470       ??_C@_1M@BNOEMJLF@?$AAe?$AAs?$AA?9?$AAG?$AAT?$AA?$AA@ 0000000180022470     libucrt:lcidtoname_downlevel.obj
 0002:00004480       ??_C@_1M@EOGNKEK@?$AAf?$AAr?$AA?9?$AAC?$AAH?$AA?$AA@ 0000000180022480     libucrt:lcidtoname_downlevel.obj
 0002:00004490       ??_C@_1M@FLIDJFHL@?$AAh?$AAr?$AA?9?$AAB?$AAA?$AA?$AA@ 0000000180022490     libucrt:lcidtoname_downlevel.obj
 0002:000044a0       ??_C@_1O@FMCELNAJ@?$AAs?$AAm?$AAj?$AA?9?$AAN?$AAO?$AA?$AA@ 00000001800224a0     libucrt:lcidtoname_downlevel.obj
 0002:000044b0       ??_C@_1M@JHGLJMGJ@?$AAa?$AAr?$AA?9?$AAD?$AAZ?$AA?$AA@ 00000001800224b0     libucrt:lcidtoname_downlevel.obj
 0002:000044c0       ??_C@_1M@JKKFDCNP@?$AAz?$AAh?$AA?9?$AAM?$AAO?$AA?$AA@ 00000001800224c0     libucrt:lcidtoname_downlevel.obj
 0002:000044d0       ??_C@_1M@GEEFALPE@?$AAd?$AAe?$AA?9?$AAL?$AAI?$AA?$AA@ 00000001800224d0     libucrt:lcidtoname_downlevel.obj
 0002:000044e0       ??_C@_1M@IGEOFBG@?$AAe?$AAn?$AA?9?$AAN?$AAZ?$AA?$AA@ 00000001800224e0     libucrt:lcidtoname_downlevel.obj
 0002:000044f0       ??_C@_1M@KDBONEHP@?$AAe?$AAs?$AA?9?$AAC?$AAR?$AA?$AA@ 00000001800224f0     libucrt:lcidtoname_downlevel.obj
 0002:00004500       ??_C@_1M@FHMDOHNN@?$AAf?$AAr?$AA?9?$AAL?$AAU?$AA?$AA@ 0000000180022500     libucrt:lcidtoname_downlevel.obj
 0002:00004510       ??_C@_1BG@NFKKMAFG@?$AAb?$AAs?$AA?9?$AAB?$AAA?$AA?9?$AAL?$AAa?$AAt?$AAn?$AA?$AA@ 0000000180022510     libucrt:lcidtoname_downlevel.obj
 0002:00004528       ??_C@_1O@IMNBEMCI@?$AAs?$AAm?$AAj?$AA?9?$AAS?$AAE?$AA?$AA@ 0000000180022528     libucrt:lcidtoname_downlevel.obj
 0002:00004538       ??_C@_1M@DHHMBNDP@?$AAa?$AAr?$AA?9?$AAM?$AAA?$AA?$AA@ 0000000180022538     libucrt:lcidtoname_downlevel.obj
 0002:00004548       ??_C@_1M@BNBLJCGH@?$AAe?$AAn?$AA?9?$AAI?$AAE?$AA?$AA@ 0000000180022548     libucrt:lcidtoname_downlevel.obj
 0002:00004558       ??_C@_1M@GEPAFMDL@?$AAe?$AAs?$AA?9?$AAP?$AAA?$AA?$AA@ 0000000180022558     libucrt:lcidtoname_downlevel.obj
 0002:00004568       ??_C@_1M@OJONDMDL@?$AAf?$AAr?$AA?9?$AAM?$AAC?$AA?$AA@ 0000000180022568     libucrt:lcidtoname_downlevel.obj
 0002:00004578       ??_C@_1BG@OBCNFJB@?$AAs?$AAr?$AA?9?$AAB?$AAA?$AA?9?$AAL?$AAa?$AAt?$AAn?$AA?$AA@ 0000000180022578     libucrt:lcidtoname_downlevel.obj
 0002:00004590       ??_C@_1O@KEMEEGPO@?$AAs?$AAm?$AAa?$AA?9?$AAN?$AAO?$AA?$AA@ 0000000180022590     libucrt:lcidtoname_downlevel.obj
 0002:000045a0       ??_C@_1M@ELMGFODK@?$AAa?$AAr?$AA?9?$AAT?$AAN?$AA?$AA@ 00000001800225a0     libucrt:lcidtoname_downlevel.obj
 0002:000045b0       ??_C@_1M@BHDLHFAF@?$AAe?$AAn?$AA?9?$AAZ?$AAA?$AA?$AA@ 00000001800225b0     libucrt:lcidtoname_downlevel.obj
 0002:000045c0       ??_C@_1M@BMGIGLIF@?$AAe?$AAs?$AA?9?$AAD?$AAO?$AA?$AA@ 00000001800225c0     libucrt:lcidtoname_downlevel.obj
 0002:000045d0       ??_C@_1BG@CMBHIPBE@?$AAs?$AAr?$AA?9?$AAB?$AAA?$AA?9?$AAC?$AAy?$AAr?$AAl?$AA?$AA@ 00000001800225d0     libucrt:lcidtoname_downlevel.obj
 0002:000045e8       ??_C@_1O@HEDBLHNP@?$AAs?$AAm?$AAa?$AA?9?$AAS?$AAE?$AA?$AA@ 00000001800225e8     libucrt:lcidtoname_downlevel.obj
 0002:000045f8       ??_C@_1M@DAGCADIM@?$AAa?$AAr?$AA?9?$AAO?$AAM?$AA?$AA@ 00000001800225f8     libucrt:lcidtoname_downlevel.obj
 0002:00004608       ??_C@_1M@FODLMICG@?$AAe?$AAn?$AA?9?$AAJ?$AAM?$AA?$AA@ 0000000180022608     libucrt:lcidtoname_downlevel.obj
 0002:00004618       ??_C@_1M@DNMLCIHB@?$AAe?$AAs?$AA?9?$AAV?$AAE?$AA?$AA@ 0000000180022618     libucrt:lcidtoname_downlevel.obj
 0002:00004628       ??_C@_1O@EOKHMKJK@?$AAs?$AAm?$AAs?$AA?9?$AAF?$AAI?$AA?$AA@ 0000000180022628     libucrt:lcidtoname_downlevel.obj
 0002:00004638       ??_C@_1M@CAFJMKOF@?$AAa?$AAr?$AA?9?$AAY?$AAE?$AA?$AA@ 0000000180022638     libucrt:lcidtoname_downlevel.obj
 0002:00004648       ??_C@_1M@CBFHIJLI@?$AAe?$AAn?$AA?9?$AAC?$AAB?$AA?$AA@ 0000000180022648     libucrt:lcidtoname_downlevel.obj
 0002:00004658       ??_C@_1M@BGNFLDN@?$AAe?$AAs?$AA?9?$AAC?$AAO?$AA?$AA@ 0000000180022658     libucrt:lcidtoname_downlevel.obj
 0002:00004668       ??_C@_1O@JMPHMAMC@?$AAs?$AAm?$AAn?$AA?9?$AAF?$AAI?$AA?$AA@ 0000000180022668     libucrt:lcidtoname_downlevel.obj
 0002:00004678       ??_C@_1M@JLANABKE@?$AAa?$AAr?$AA?9?$AAS?$AAY?$AA?$AA@ 0000000180022678     libucrt:lcidtoname_downlevel.obj
 0002:00004688       ??_C@_1M@HPKGCFGN@?$AAe?$AAn?$AA?9?$AAB?$AAZ?$AA?$AA@ 0000000180022688     libucrt:lcidtoname_downlevel.obj
 0002:00004698       ??_C@_1M@OLJCMLGM@?$AAe?$AAs?$AA?9?$AAP?$AAE?$AA?$AA@ 0000000180022698     libucrt:lcidtoname_downlevel.obj
 0002:000046a8       ??_C@_1M@MKKGFKLE@?$AAa?$AAr?$AA?9?$AAJ?$AAO?$AA?$AA@ 00000001800226a8     libucrt:lcidtoname_downlevel.obj
 0002:000046b8       ??_C@_1M@EKPGLDNI@?$AAe?$AAn?$AA?9?$AAT?$AAT?$AA?$AA@ 00000001800226b8     libucrt:lcidtoname_downlevel.obj
 0002:000046c8       ??_C@_1M@OONGHFHE@?$AAe?$AAs?$AA?9?$AAA?$AAR?$AA?$AA@ 00000001800226c8     libucrt:lcidtoname_downlevel.obj
 0002:000046d8       ??_C@_1M@OOJFGBHE@?$AAa?$AAr?$AA?9?$AAL?$AAB?$AA?$AA@ 00000001800226d8     libucrt:lcidtoname_downlevel.obj
 0002:000046e8       ??_C@_1M@GCEJHNEG@?$AAe?$AAn?$AA?9?$AAZ?$AAW?$AA?$AA@ 00000001800226e8     libucrt:lcidtoname_downlevel.obj
 0002:000046f8       ??_C@_1M@JNOCAHJI@?$AAe?$AAs?$AA?9?$AAE?$AAC?$AA?$AA@ 00000001800226f8     libucrt:lcidtoname_downlevel.obj
 0002:00004708       ??_C@_1M@JEFHPGGB@?$AAa?$AAr?$AA?9?$AAK?$AAW?$AA?$AA@ 0000000180022708     libucrt:lcidtoname_downlevel.obj
 0002:00004718       ??_C@_1M@MLKIBJOJ@?$AAe?$AAn?$AA?9?$AAP?$AAH?$AA?$AA@ 0000000180022718     libucrt:lcidtoname_downlevel.obj
 0002:00004728       ??_C@_1M@BDNIPEND@?$AAe?$AAs?$AA?9?$AAC?$AAL?$AA?$AA@ 0000000180022728     libucrt:lcidtoname_downlevel.obj
 0002:00004738       ??_C@_1M@MPNMEKBD@?$AAa?$AAr?$AA?9?$AAA?$AAE?$AA?$AA@ 0000000180022738     libucrt:lcidtoname_downlevel.obj
 0002:00004748       ??_C@_1M@KBJALCPI@?$AAe?$AAs?$AA?9?$AAU?$AAY?$AA?$AA@ 0000000180022748     libucrt:lcidtoname_downlevel.obj
 0002:00004758       ??_C@_1M@LLCCOAGA@?$AAa?$AAr?$AA?9?$AAB?$AAH?$AA?$AA@ 0000000180022758     libucrt:lcidtoname_downlevel.obj
 0002:00004768       ??_C@_1M@PBFNCDEL@?$AAe?$AAs?$AA?9?$AAP?$AAY?$AA?$AA@ 0000000180022768     libucrt:lcidtoname_downlevel.obj
 0002:00004778       ??_C@_1M@EDGINPNP@?$AAa?$AAr?$AA?9?$AAQ?$AAA?$AA?$AA@ 0000000180022778     libucrt:lcidtoname_downlevel.obj
 0002:00004788       ??_C@_1M@MKDBIIJI@?$AAe?$AAs?$AA?9?$AAB?$AAO?$AA?$AA@ 0000000180022788     libucrt:lcidtoname_downlevel.obj
 0002:00004798       ??_C@_1M@CPKKEBLD@?$AAe?$AAs?$AA?9?$AAS?$AAV?$AA?$AA@ 0000000180022798     libucrt:lcidtoname_downlevel.obj
 0002:000047a8       ??_C@_1M@NDBGMMJL@?$AAe?$AAs?$AA?9?$AAH?$AAN?$AA?$AA@ 00000001800227a8     libucrt:lcidtoname_downlevel.obj
 0002:000047b8       ??_C@_1M@JIJIBHDP@?$AAe?$AAs?$AA?9?$AAN?$AAI?$AA?$AA@ 00000001800227b8     libucrt:lcidtoname_downlevel.obj
 0002:000047c8       ??_C@_1M@CGFMKEEK@?$AAe?$AAs?$AA?9?$AAP?$AAR?$AA?$AA@ 00000001800227c8     libucrt:lcidtoname_downlevel.obj
 0002:000047d8       ??_C@_1O@ICJHKIIK@?$AAz?$AAh?$AA?9?$AAC?$AAH?$AAT?$AA?$AA@ 00000001800227d8     libucrt:lcidtoname_downlevel.obj
 0002:000047e8       ??_C@_15CLNEJCE@?$AAs?$AAr?$AA?$AA@ 00000001800227e8     libucrt:lcidtoname_downlevel.obj
 0002:00005630       ??_C@_1M@KAHEKEIG@?$AAa?$AAf?$AA?9?$AAz?$AAa?$AA?$AA@ 0000000180023630     libucrt:lcidtoname_downlevel.obj
 0002:00005640       ??_C@_1M@GIECOABL@?$AAa?$AAr?$AA?9?$AAa?$AAe?$AA?$AA@ 0000000180023640     libucrt:lcidtoname_downlevel.obj
 0002:00005650       ??_C@_1M@BMLMEKGI@?$AAa?$AAr?$AA?9?$AAb?$AAh?$AA?$AA@ 0000000180023650     libucrt:lcidtoname_downlevel.obj
 0002:00005660       ??_C@_1M@DAPFDGGB@?$AAa?$AAr?$AA?9?$AAd?$AAz?$AA?$AA@ 0000000180023660     libucrt:lcidtoname_downlevel.obj
 0002:00005670       ??_C@_1M@FJNKGKIG@?$AAa?$AAr?$AA?9?$AAe?$AAg?$AA?$AA@ 0000000180023670     libucrt:lcidtoname_downlevel.obj
 0002:00005680       ??_C@_1M@FLGKKCLO@?$AAa?$AAr?$AA?9?$AAi?$AAq?$AA?$AA@ 0000000180023680     libucrt:lcidtoname_downlevel.obj
 0002:00005690       ??_C@_1M@GNDIPALM@?$AAa?$AAr?$AA?9?$AAj?$AAo?$AA?$AA@ 0000000180023690     libucrt:lcidtoname_downlevel.obj
 0002:000056a0       ??_C@_1M@DDMJFMGJ@?$AAa?$AAr?$AA?9?$AAk?$AAw?$AA?$AA@ 00000001800236a0     libucrt:lcidtoname_downlevel.obj
 0002:000056b0       ??_C@_1M@EJALMLHM@?$AAa?$AAr?$AA?9?$AAl?$AAb?$AA?$AA@ 00000001800236b0     libucrt:lcidtoname_downlevel.obj
 0002:000056c0       ??_C@_1M@MOBDBLOC@?$AAa?$AAr?$AA?9?$AAl?$AAy?$AA?$AA@ 00000001800236c0     libucrt:lcidtoname_downlevel.obj
 0002:000056d0       ??_C@_1M@JAOCLHDH@?$AAa?$AAr?$AA?9?$AAm?$AAa?$AA?$AA@ 00000001800236d0     libucrt:lcidtoname_downlevel.obj
 0002:000056e0       ??_C@_1M@JHPMKJIE@?$AAa?$AAr?$AA?9?$AAo?$AAm?$AA?$AA@ 00000001800236e0     libucrt:lcidtoname_downlevel.obj
 0002:000056f0       ??_C@_1M@OEPGHFNH@?$AAa?$AAr?$AA?9?$AAq?$AAa?$AA?$AA@ 00000001800236f0     libucrt:lcidtoname_downlevel.obj
 0002:00005700       ??_C@_1M@KJDONENM@?$AAa?$AAr?$AA?9?$AAs?$AAa?$AA?$AA@ 0000000180023700     libucrt:lcidtoname_downlevel.obj
 0002:00005710       ??_C@_1M@DMJDKLKM@?$AAa?$AAr?$AA?9?$AAs?$AAy?$AA?$AA@ 0000000180023710     libucrt:lcidtoname_downlevel.obj
 0002:00005720       ??_C@_1M@OMFIPEDC@?$AAa?$AAr?$AA?9?$AAt?$AAn?$AA?$AA@ 0000000180023720     libucrt:lcidtoname_downlevel.obj
 0002:00005730       ??_C@_1M@IHMHGAON@?$AAa?$AAr?$AA?9?$AAy?$AAe?$AA?$AA@ 0000000180023730     libucrt:lcidtoname_downlevel.obj
 0002:00005740       ??_C@_1BG@KDCPGJGB@?$AAa?$AAz?$AA?9?$AAa?$AAz?$AA?9?$AAc?$AAy?$AAr?$AAl?$AA?$AA@ 0000000180023740     libucrt:lcidtoname_downlevel.obj
 0002:00005758       ??_C@_1BG@IBCKDDOE@?$AAa?$AAz?$AA?9?$AAa?$AAz?$AA?9?$AAl?$AAa?$AAt?$AAn?$AA?$AA@ 0000000180023758     libucrt:lcidtoname_downlevel.obj
 0002:00005770       ??_C@_1M@EGPFDCPD@?$AAb?$AAe?$AA?9?$AAb?$AAy?$AA?$AA@ 0000000180023770     libucrt:lcidtoname_downlevel.obj
 0002:00005780       ??_C@_1M@PCMGMCGC@?$AAb?$AAg?$AA?9?$AAb?$AAg?$AA?$AA@ 0000000180023780     libucrt:lcidtoname_downlevel.obj
 0002:00005790       ??_C@_1M@BJBMFGOB@?$AAb?$AAn?$AA?9?$AAi?$AAn?$AA?$AA@ 0000000180023790     libucrt:lcidtoname_downlevel.obj
 0002:000057a0       ??_C@_1BG@EAKMMACD@?$AAb?$AAs?$AA?9?$AAb?$AAa?$AA?9?$AAl?$AAa?$AAt?$AAn?$AA?$AA@ 00000001800237a0     libucrt:lcidtoname_downlevel.obj
 0002:000057b8       ??_C@_1M@KGADAODK@?$AAc?$AAa?$AA?9?$AAe?$AAs?$AA?$AA@ 00000001800237b8     libucrt:lcidtoname_downlevel.obj
 0002:000057c8       ??_C@_1M@COAJPDHI@?$AAc?$AAs?$AA?9?$AAc?$AAz?$AA?$AA@ 00000001800237c8     libucrt:lcidtoname_downlevel.obj
 0002:000057d8       ??_C@_1M@DHBHFONH@?$AAc?$AAy?$AA?9?$AAg?$AAb?$AA?$AA@ 00000001800237d8     libucrt:lcidtoname_downlevel.obj
 0002:000057e8       ??_C@_1M@IMGKELGA@?$AAd?$AAa?$AA?9?$AAd?$AAk?$AA?$AA@ 00000001800237e8     libucrt:lcidtoname_downlevel.obj
 0002:000057f8       ??_C@_1M@NNDGDNGA@?$AAd?$AAe?$AA?9?$AAa?$AAt?$AA?$AA@ 00000001800237f8     libucrt:lcidtoname_downlevel.obj
 0002:00005808       ??_C@_1M@IKDBHEEM@?$AAd?$AAe?$AA?9?$AAc?$AAh?$AA?$AA@ 0000000180023808     libucrt:lcidtoname_downlevel.obj
 0002:00005818       ??_C@_1M@GFFOJMCJ@?$AAd?$AAe?$AA?9?$AAd?$AAe?$AA?$AA@ 0000000180023818     libucrt:lcidtoname_downlevel.obj
 0002:00005828       ??_C@_1M@MDNLKBPM@?$AAd?$AAe?$AA?9?$AAl?$AAi?$AA?$AA@ 0000000180023828     libucrt:lcidtoname_downlevel.obj
 0002:00005838       ??_C@_1M@NJBEEJNL@?$AAd?$AAe?$AA?9?$AAl?$AAu?$AA?$AA@ 0000000180023838     libucrt:lcidtoname_downlevel.obj
 0002:00005848       ??_C@_1O@GNNELBAP@?$AAd?$AAi?$AAv?$AA?9?$AAm?$AAv?$AA?$AA@ 0000000180023848     libucrt:lcidtoname_downlevel.obj
 0002:00005858       ??_C@_1M@EJLEOGAE@?$AAe?$AAl?$AA?9?$AAg?$AAr?$AA?$AA@ 0000000180023858     libucrt:lcidtoname_downlevel.obj
 0002:00005868       ??_C@_1M@GMPONJN@?$AAe?$AAn?$AA?9?$AAa?$AAu?$AA?$AA@ 0000000180023868     libucrt:lcidtoname_downlevel.obj
 0002:00005878       ??_C@_1M@NIDIIPGF@?$AAe?$AAn?$AA?9?$AAb?$AAz?$AA?$AA@ 0000000180023878     libucrt:lcidtoname_downlevel.obj
 0002:00005888       ??_C@_1M@JEHMIMFO@?$AAe?$AAn?$AA?9?$AAc?$AAa?$AA?$AA@ 0000000180023888     libucrt:lcidtoname_downlevel.obj
 0002:00005898       ??_C@_1M@IGMJCDLA@?$AAe?$AAn?$AA?9?$AAc?$AAb?$AA?$AA@ 0000000180023898     libucrt:lcidtoname_downlevel.obj
 0002:000058a8       ??_C@_1M@BNFIGBKG@?$AAe?$AAn?$AA?9?$AAg?$AAb?$AA?$AA@ 00000001800238a8     libucrt:lcidtoname_downlevel.obj
 0002:000058b8       ??_C@_1M@LKIFDIGP@?$AAe?$AAn?$AA?9?$AAi?$AAe?$AA?$AA@ 00000001800238b8     libucrt:lcidtoname_downlevel.obj
 0002:000058c8       ??_C@_1M@PJKFGCCO@?$AAe?$AAn?$AA?9?$AAj?$AAm?$AA?$AA@ 00000001800238c8     libucrt:lcidtoname_downlevel.obj
 0002:000058d8       ??_C@_1M@KPPKEPBO@?$AAe?$AAn?$AA?9?$AAn?$AAz?$AA?$AA@ 00000001800238d8     libucrt:lcidtoname_downlevel.obj
 0002:000058e8       ??_C@_1M@GMDGLDOB@?$AAe?$AAn?$AA?9?$AAp?$AAh?$AA?$AA@ 00000001800238e8     libucrt:lcidtoname_downlevel.obj
 0002:000058f8       ??_C@_1M@ONGIBJNA@?$AAe?$AAn?$AA?9?$AAt?$AAt?$AA?$AA@ 00000001800238f8     libucrt:lcidtoname_downlevel.obj
 0002:00005908       ??_C@_1M@LLODPCMM@?$AAe?$AAn?$AA?9?$AAu?$AAs?$AA?$AA@ 0000000180023908     libucrt:lcidtoname_downlevel.obj
 0002:00005918       ??_C@_1M@LAKFNPAN@?$AAe?$AAn?$AA?9?$AAz?$AAa?$AA?$AA@ 0000000180023918     libucrt:lcidtoname_downlevel.obj
 0002:00005928       ??_C@_1M@MFNHNHEO@?$AAe?$AAn?$AA?9?$AAz?$AAw?$AA?$AA@ 0000000180023928     libucrt:lcidtoname_downlevel.obj
 0002:00005938       ??_C@_1M@EJEINPHM@?$AAe?$AAs?$AA?9?$AAa?$AAr?$AA?$AA@ 0000000180023938     libucrt:lcidtoname_downlevel.obj
 0002:00005948       ??_C@_1M@GNKPCCJA@?$AAe?$AAs?$AA?9?$AAb?$AAo?$AA?$AA@ 0000000180023948     libucrt:lcidtoname_downlevel.obj
 0002:00005958       ??_C@_1M@LEEGFONL@?$AAe?$AAs?$AA?9?$AAc?$AAl?$AA?$AA@ 0000000180023958     libucrt:lcidtoname_downlevel.obj
 0002:00005968       ??_C@_1M@KGPDPBDF@?$AAe?$AAs?$AA?9?$AAc?$AAo?$AA?$AA@ 0000000180023968     libucrt:lcidtoname_downlevel.obj
 0002:00005978       ??_C@_1M@EIAHOHH@?$AAe?$AAs?$AA?9?$AAc?$AAr?$AA?$AA@ 0000000180023978     libucrt:lcidtoname_downlevel.obj
 0002:00005988       ??_C@_1M@LLPGMBIN@?$AAe?$AAs?$AA?9?$AAd?$AAo?$AA?$AA@ 0000000180023988     libucrt:lcidtoname_downlevel.obj
 0002:00005998       ??_C@_1M@DKHMKNJA@?$AAe?$AAs?$AA?9?$AAe?$AAc?$AA?$AA@ 0000000180023998     libucrt:lcidtoname_downlevel.obj
 0002:000059a8       ??_C@_1M@GKGFPKAP@?$AAe?$AAs?$AA?9?$AAe?$AAs?$AA?$AA@ 00000001800239a8     libucrt:lcidtoname_downlevel.obj
 0002:000059b8       ??_C@_1M@LKHKGDLN@?$AAe?$AAs?$AA?9?$AAg?$AAt?$AA?$AA@ 00000001800239b8     libucrt:lcidtoname_downlevel.obj
 0002:000059c8       ??_C@_1M@HEIIGGJD@?$AAe?$AAs?$AA?9?$AAh?$AAn?$AA?$AA@ 00000001800239c8     libucrt:lcidtoname_downlevel.obj
 0002:000059d8       ??_C@_1M@FBDHPPGD@?$AAe?$AAs?$AA?9?$AAm?$AAx?$AA?$AA@ 00000001800239d8     libucrt:lcidtoname_downlevel.obj
 0002:000059e8       ??_C@_1M@DPAGLNDH@?$AAe?$AAs?$AA?9?$AAn?$AAi?$AA?$AA@ 00000001800239e8     libucrt:lcidtoname_downlevel.obj
 0002:000059f8       ??_C@_1M@MDGOPGDD@?$AAe?$AAs?$AA?9?$AAp?$AAa?$AA?$AA@ 00000001800239f8     libucrt:lcidtoname_downlevel.obj
 0002:00005a08       ??_C@_1M@EMAMGBGE@?$AAe?$AAs?$AA?9?$AAp?$AAe?$AA?$AA@ 0000000180023a08     libucrt:lcidtoname_downlevel.obj
 0002:00005a18       ??_C@_1M@IBMCAOEC@?$AAe?$AAs?$AA?9?$AAp?$AAr?$AA?$AA@ 0000000180023a18     libucrt:lcidtoname_downlevel.obj
 0002:00005a28       ??_C@_1M@FGMDIJED@?$AAe?$AAs?$AA?9?$AAp?$AAy?$AA?$AA@ 0000000180023a28     libucrt:lcidtoname_downlevel.obj
 0002:00005a38       ??_C@_1M@IIDEOLLL@?$AAe?$AAs?$AA?9?$AAs?$AAv?$AA?$AA@ 0000000180023a38     libucrt:lcidtoname_downlevel.obj
 0002:00005a48       ??_C@_1M@GAOBIPA@?$AAe?$AAs?$AA?9?$AAu?$AAy?$AA?$AA@ 0000000180023a48     libucrt:lcidtoname_downlevel.obj
 0002:00005a58       ??_C@_1M@JKFFICHJ@?$AAe?$AAs?$AA?9?$AAv?$AAe?$AA?$AA@ 0000000180023a58     libucrt:lcidtoname_downlevel.obj
 0002:00005a68       ??_C@_1M@PNMLOJDF@?$AAe?$AAt?$AA?9?$AAe?$AAe?$AA?$AA@ 0000000180023a68     libucrt:lcidtoname_downlevel.obj
 0002:00005a78       ??_C@_1M@GHHLIKEI@?$AAe?$AAu?$AA?9?$AAe?$AAs?$AA?$AA@ 0000000180023a78     libucrt:lcidtoname_downlevel.obj
 0002:00005a88       ??_C@_1M@PBNONODE@?$AAf?$AAa?$AA?9?$AAi?$AAr?$AA?$AA@ 0000000180023a88     libucrt:lcidtoname_downlevel.obj
 0002:00005a98       ??_C@_1M@JEEHPMIL@?$AAf?$AAi?$AA?9?$AAf?$AAi?$AA?$AA@ 0000000180023a98     libucrt:lcidtoname_downlevel.obj
 0002:00005aa8       ??_C@_1M@LMDCNDBA@?$AAf?$AAo?$AA?9?$AAf?$AAo?$AA?$AA@ 0000000180023aa8     libucrt:lcidtoname_downlevel.obj
 0002:00005ab8       ??_C@_1M@JKEOHLDK@?$AAf?$AAr?$AA?9?$AAb?$AAe?$AA?$AA@ 0000000180023ab8     libucrt:lcidtoname_downlevel.obj
 0002:00005ac8       ??_C@_1M@NOHADPMI@?$AAf?$AAr?$AA?9?$AAc?$AAa?$AA?$AA@ 0000000180023ac8     libucrt:lcidtoname_downlevel.obj
 0002:00005ad8       ??_C@_1M@KDHIHAEC@?$AAf?$AAr?$AA?9?$AAc?$AAh?$AA?$AA@ 0000000180023ad8     libucrt:lcidtoname_downlevel.obj
 0002:00005ae8       ??_C@_1M@MMBBFGAK@?$AAf?$AAr?$AA?9?$AAf?$AAr?$AA?$AA@ 0000000180023ae8     libucrt:lcidtoname_downlevel.obj
 0002:00005af8       ??_C@_1M@PAFNENNF@?$AAf?$AAr?$AA?9?$AAl?$AAu?$AA?$AA@ 0000000180023af8     libucrt:lcidtoname_downlevel.obj
 0002:00005b08       ??_C@_1M@EOHDJGDD@?$AAf?$AAr?$AA?9?$AAm?$AAc?$AA?$AA@ 0000000180023b08     libucrt:lcidtoname_downlevel.obj
 0002:00005b18       ??_C@_1M@FAPLLOPF@?$AAg?$AAl?$AA?9?$AAe?$AAs?$AA?$AA@ 0000000180023b18     libucrt:lcidtoname_downlevel.obj
 0002:00005b28       ??_C@_1M@FOPBFLOO@?$AAg?$AAu?$AA?9?$AAi?$AAn?$AA?$AA@ 0000000180023b28     libucrt:lcidtoname_downlevel.obj
 0002:00005b38       ??_C@_1M@KBMCINPM@?$AAh?$AAe?$AA?9?$AAi?$AAl?$AA?$AA@ 0000000180023b38     libucrt:lcidtoname_downlevel.obj
 0002:00005b48       ??_C@_1M@BBPHKFPJ@?$AAh?$AAi?$AA?9?$AAi?$AAn?$AA?$AA@ 0000000180023b48     libucrt:lcidtoname_downlevel.obj
 0002:00005b58       ??_C@_1M@PMBNDPHD@?$AAh?$AAr?$AA?9?$AAb?$AAa?$AA?$AA@ 0000000180023b58     libucrt:lcidtoname_downlevel.obj
 0002:00005b68       ??_C@_1M@BPCKOEGE@?$AAh?$AAr?$AA?9?$AAh?$AAr?$AA?$AA@ 0000000180023b68     libucrt:lcidtoname_downlevel.obj
 0002:00005b78       ??_C@_1M@GACBMHKE@?$AAh?$AAu?$AA?9?$AAh?$AAu?$AA?$AA@ 0000000180023b78     libucrt:lcidtoname_downlevel.obj
 0002:00005b88       ??_C@_1M@MILPAJJC@?$AAh?$AAy?$AA?9?$AAa?$AAm?$AA?$AA@ 0000000180023b88     libucrt:lcidtoname_downlevel.obj
 0002:00005b98       ??_C@_1M@BABBICEC@?$AAi?$AAd?$AA?9?$AAi?$AAd?$AA?$AA@ 0000000180023b98     libucrt:lcidtoname_downlevel.obj
 0002:00005ba8       ??_C@_1M@BIKNHHPF@?$AAi?$AAs?$AA?9?$AAi?$AAs?$AA?$AA@ 0000000180023ba8     libucrt:lcidtoname_downlevel.obj
 0002:00005bb8       ??_C@_1M@NMPCJPHE@?$AAi?$AAt?$AA?9?$AAc?$AAh?$AA?$AA@ 0000000180023bb8     libucrt:lcidtoname_downlevel.obj
 0002:00005bc8       ??_C@_1M@GHKGFEDF@?$AAi?$AAt?$AA?9?$AAi?$AAt?$AA?$AA@ 0000000180023bc8     libucrt:lcidtoname_downlevel.obj
 0002:00005bd8       ??_C@_1M@NIEJCJJA@?$AAj?$AAa?$AA?9?$AAj?$AAp?$AA?$AA@ 0000000180023bd8     libucrt:lcidtoname_downlevel.obj
 0002:00005be8       ??_C@_1M@JILFNBIM@?$AAk?$AAa?$AA?9?$AAg?$AAe?$AA?$AA@ 0000000180023be8     libucrt:lcidtoname_downlevel.obj
 0002:00005bf8       ??_C@_1M@PACPMGPH@?$AAk?$AAk?$AA?9?$AAk?$AAz?$AA?$AA@ 0000000180023bf8     libucrt:lcidtoname_downlevel.obj
 0002:00005c08       ??_C@_1M@IELFGMHA@?$AAk?$AAn?$AA?9?$AAi?$AAn?$AA?$AA@ 0000000180023c08     libucrt:lcidtoname_downlevel.obj
 0002:00005c18       ??_C@_1O@IBBJHCH@?$AAk?$AAo?$AAk?$AA?9?$AAi?$AAn?$AA?$AA@ 0000000180023c18     libucrt:lcidtoname_downlevel.obj
 0002:00005c28       ??_C@_1M@DMHAEOGC@?$AAk?$AAo?$AA?9?$AAk?$AAr?$AA?$AA@ 0000000180023c28     libucrt:lcidtoname_downlevel.obj
 0002:00005c38       ??_C@_1M@HBAHBIGA@?$AAk?$AAy?$AA?9?$AAk?$AAg?$AA?$AA@ 0000000180023c38     libucrt:lcidtoname_downlevel.obj
 0002:00005c48       ??_C@_1M@KPMILCJG@?$AAl?$AAt?$AA?9?$AAl?$AAt?$AA?$AA@ 0000000180023c48     libucrt:lcidtoname_downlevel.obj
 0002:00005c58       ??_C@_1M@BDEKKCA@?$AAl?$AAv?$AA?9?$AAl?$AAv?$AA?$AA@ 0000000180023c58     libucrt:lcidtoname_downlevel.obj
 0002:00005c68       ??_C@_1M@ELCKCCJJ@?$AAm?$AAi?$AA?9?$AAn?$AAz?$AA?$AA@ 0000000180023c68     libucrt:lcidtoname_downlevel.obj
 0002:00005c78       ??_C@_1M@CBOOLAPA@?$AAm?$AAk?$AA?9?$AAm?$AAk?$AA?$AA@ 0000000180023c78     libucrt:lcidtoname_downlevel.obj
 0002:00005c88       ??_C@_1M@GPHNBJKN@?$AAm?$AAl?$AA?9?$AAi?$AAn?$AA?$AA@ 0000000180023c88     libucrt:lcidtoname_downlevel.obj
 0002:00005c98       ??_C@_1M@PABJILIG@?$AAm?$AAn?$AA?9?$AAm?$AAn?$AA?$AA@ 0000000180023c98     libucrt:lcidtoname_downlevel.obj
 0002:00005ca8       ??_C@_1M@FGBKKIPG@?$AAm?$AAr?$AA?9?$AAi?$AAn?$AA?$AA@ 0000000180023ca8     libucrt:lcidtoname_downlevel.obj
 0002:00005cb8       ??_C@_1M@NDBPDDAL@?$AAm?$AAs?$AA?9?$AAb?$AAn?$AA?$AA@ 0000000180023cb8     libucrt:lcidtoname_downlevel.obj
 0002:00005cc8       ??_C@_1M@OPIHOOPI@?$AAm?$AAs?$AA?9?$AAm?$AAy?$AA?$AA@ 0000000180023cc8     libucrt:lcidtoname_downlevel.obj
 0002:00005cd8       ??_C@_1M@PPDBCNFM@?$AAm?$AAt?$AA?9?$AAm?$AAt?$AA?$AA@ 0000000180023cd8     libucrt:lcidtoname_downlevel.obj
 0002:00005ce8       ??_C@_1M@KDJDKMDD@?$AAn?$AAb?$AA?9?$AAn?$AAo?$AA?$AA@ 0000000180023ce8     libucrt:lcidtoname_downlevel.obj
 0002:00005cf8       ??_C@_1M@KFCFLMJP@?$AAn?$AAl?$AA?9?$AAb?$AAe?$AA?$AA@ 0000000180023cf8     libucrt:lcidtoname_downlevel.obj
 0002:00005d08       ??_C@_1M@KPOPDDGO@?$AAn?$AAl?$AA?9?$AAn?$AAl?$AA?$AA@ 0000000180023d08     libucrt:lcidtoname_downlevel.obj
 0002:00005d18       ??_C@_1M@LJKPEMLN@?$AAn?$AAn?$AA?9?$AAn?$AAo?$AA?$AA@ 0000000180023d18     libucrt:lcidtoname_downlevel.obj
 0002:00005d28       ??_C@_1M@BDGHHBFL@?$AAn?$AAs?$AA?9?$AAz?$AAa?$AA?$AA@ 0000000180023d28     libucrt:lcidtoname_downlevel.obj
 0002:00005d38       ??_C@_1M@IDEHOAP@?$AAp?$AAa?$AA?9?$AAi?$AAn?$AA?$AA@ 0000000180023d38     libucrt:lcidtoname_downlevel.obj
 0002:00005d48       ??_C@_1M@HDBKGOGH@?$AAp?$AAl?$AA?9?$AAp?$AAl?$AA?$AA@ 0000000180023d48     libucrt:lcidtoname_downlevel.obj
 0002:00005d58       ??_C@_1M@LJLLCMEH@?$AAp?$AAt?$AA?9?$AAb?$AAr?$AA?$AA@ 0000000180023d58     libucrt:lcidtoname_downlevel.obj
 0002:00005d68       ??_C@_1M@NCMONAAL@?$AAp?$AAt?$AA?9?$AAp?$AAt?$AA?$AA@ 0000000180023d68     libucrt:lcidtoname_downlevel.obj
 0002:00005d78       ??_C@_1O@EAKMAJDN@?$AAq?$AAu?$AAz?$AA?9?$AAb?$AAo?$AA?$AA@ 0000000180023d78     libucrt:lcidtoname_downlevel.obj
 0002:00005d88       ??_C@_1O@BHHPIGDN@?$AAq?$AAu?$AAz?$AA?9?$AAe?$AAc?$AA?$AA@ 0000000180023d88     libucrt:lcidtoname_downlevel.obj
 0002:00005d98       ??_C@_1O@GBAPEKMJ@?$AAq?$AAu?$AAz?$AA?9?$AAp?$AAe?$AA?$AA@ 0000000180023d98     libucrt:lcidtoname_downlevel.obj
 0002:00005da8       ??_C@_1M@CLGLEFBO@?$AAr?$AAo?$AA?9?$AAr?$AAo?$AA?$AA@ 0000000180023da8     libucrt:lcidtoname_downlevel.obj
 0002:00005db8       ??_C@_1M@CEEDODME@?$AAr?$AAu?$AA?9?$AAr?$AAu?$AA?$AA@ 0000000180023db8     libucrt:lcidtoname_downlevel.obj
 0002:00005dc8       ??_C@_1M@HPKKKMPP@?$AAs?$AAa?$AA?9?$AAi?$AAn?$AA?$AA@ 0000000180023dc8     libucrt:lcidtoname_downlevel.obj
 0002:00005dd8       ??_C@_1M@BKMAIGOJ@?$AAs?$AAe?$AA?9?$AAf?$AAi?$AA?$AA@ 0000000180023dd8     libucrt:lcidtoname_downlevel.obj
 0002:00005de8       ??_C@_1M@NDPIFLFI@?$AAs?$AAe?$AA?9?$AAn?$AAo?$AA?$AA@ 0000000180023de8     libucrt:lcidtoname_downlevel.obj
 0002:00005df8       ??_C@_1M@DANKKHJ@?$AAs?$AAe?$AA?9?$AAs?$AAe?$AA?$AA@ 0000000180023df8     libucrt:lcidtoname_downlevel.obj
 0002:00005e08       ??_C@_1M@PNBLONPJ@?$AAs?$AAk?$AA?9?$AAs?$AAk?$AA?$AA@ 0000000180023e08     libucrt:lcidtoname_downlevel.obj
 0002:00005e18       ??_C@_1M@LFMODOAL@?$AAs?$AAl?$AA?9?$AAs?$AAi?$AA?$AA@ 0000000180023e18     libucrt:lcidtoname_downlevel.obj
 0002:00005e28       ??_C@_1O@DFKOMPG@?$AAs?$AAm?$AAa?$AA?9?$AAn?$AAo?$AA?$AA@ 0000000180023e28     libucrt:lcidtoname_downlevel.obj
 0002:00005e38       ??_C@_1O@NDKPBNNH@?$AAs?$AAm?$AAa?$AA?9?$AAs?$AAe?$AA?$AA@ 0000000180023e38     libucrt:lcidtoname_downlevel.obj
 0002:00005e48       ??_C@_1O@PLLKBHAB@?$AAs?$AAm?$AAj?$AA?9?$AAn?$AAo?$AA?$AA@ 0000000180023e48     libucrt:lcidtoname_downlevel.obj
 0002:00005e58       ??_C@_1O@CLEPOGCA@?$AAs?$AAm?$AAj?$AA?9?$AAs?$AAe?$AA?$AA@ 0000000180023e58     libucrt:lcidtoname_downlevel.obj
 0002:00005e68       ??_C@_1O@DLGJGKMK@?$AAs?$AAm?$AAn?$AA?9?$AAf?$AAi?$AA?$AA@ 0000000180023e68     libucrt:lcidtoname_downlevel.obj
 0002:00005e78       ??_C@_1O@OJDJGAJC@?$AAs?$AAm?$AAs?$AA?9?$AAf?$AAi?$AA?$AA@ 0000000180023e78     libucrt:lcidtoname_downlevel.obj
 0002:00005e88       ??_C@_1M@BOFOGHPB@?$AAs?$AAq?$AA?9?$AAa?$AAl?$AA?$AA@ 0000000180023e88     libucrt:lcidtoname_downlevel.obj
 0002:00005e98       ??_C@_1BG@LJBBIPGB@?$AAs?$AAr?$AA?9?$AAb?$AAa?$AA?9?$AAc?$AAy?$AAr?$AAl?$AA?$AA@ 0000000180023e98     libucrt:lcidtoname_downlevel.obj
 0002:00005eb0       ??_C@_1BG@JLBENFOE@?$AAs?$AAr?$AA?9?$AAb?$AAa?$AA?9?$AAl?$AAa?$AAt?$AAn?$AA?$AA@ 0000000180023eb0     libucrt:lcidtoname_downlevel.obj
 0002:00005ec8       ??_C@_1BG@KODPNHE@?$AAs?$AAr?$AA?9?$AAs?$AAp?$AA?9?$AAc?$AAy?$AAr?$AAl?$AA?$AA@ 0000000180023ec8     libucrt:lcidtoname_downlevel.obj
 0002:00005ee0       ??_C@_1BG@CIOGKHPB@?$AAs?$AAr?$AA?9?$AAs?$AAp?$AA?9?$AAl?$AAa?$AAt?$AAn?$AA?$AA@ 0000000180023ee0     libucrt:lcidtoname_downlevel.obj
 0002:00005ef8       ??_C@_1M@NGFJLMAC@?$AAs?$AAv?$AA?9?$AAf?$AAi?$AA?$AA@ 0000000180023ef8     libucrt:lcidtoname_downlevel.obj
 0002:00005f08       ??_C@_1M@MPJEJAJC@?$AAs?$AAv?$AA?9?$AAs?$AAe?$AA?$AA@ 0000000180023f08     libucrt:lcidtoname_downlevel.obj
 0002:00005f18       ??_C@_1M@MPNDHLFK@?$AAs?$AAw?$AA?9?$AAk?$AAe?$AA?$AA@ 0000000180023f18     libucrt:lcidtoname_downlevel.obj
 0002:00005f28       ??_C@_1O@KOHBJJI@?$AAs?$AAy?$AAr?$AA?9?$AAs?$AAy?$AA?$AA@ 0000000180023f28     libucrt:lcidtoname_downlevel.obj
 0002:00005f38       ??_C@_1M@LDCEFHA@?$AAt?$AAa?$AA?9?$AAi?$AAn?$AA?$AA@ 0000000180023f38     libucrt:lcidtoname_downlevel.obj
 0002:00005f48       ??_C@_1M@CNJOFAK@?$AAt?$AAe?$AA?9?$AAi?$AAn?$AA?$AA@ 0000000180023f48     libucrt:lcidtoname_downlevel.obj
 0002:00005f58       ??_C@_1M@GNAECACD@?$AAt?$AAh?$AA?9?$AAt?$AAh?$AA?$AA@ 0000000180023f58     libucrt:lcidtoname_downlevel.obj
 0002:00005f68       ??_C@_1M@CHBIHOJO@?$AAt?$AAn?$AA?9?$AAz?$AAa?$AA?$AA@ 0000000180023f68     libucrt:lcidtoname_downlevel.obj
 0002:00005f78       ??_C@_1M@GCCMIGPJ@?$AAt?$AAr?$AA?9?$AAt?$AAr?$AA?$AA@ 0000000180023f78     libucrt:lcidtoname_downlevel.obj
 0002:00005f88       ??_C@_1M@CELMCNBK@?$AAt?$AAt?$AA?9?$AAr?$AAu?$AA?$AA@ 0000000180023f88     libucrt:lcidtoname_downlevel.obj
 0002:00005f98       ??_C@_1M@KLMCELGA@?$AAu?$AAk?$AA?9?$AAu?$AAa?$AA?$AA@ 0000000180023f98     libucrt:lcidtoname_downlevel.obj
 0002:00005fa8       ??_C@_1M@EPAJJAJF@?$AAu?$AAr?$AA?9?$AAp?$AAk?$AA?$AA@ 0000000180023fa8     libucrt:lcidtoname_downlevel.obj
 0002:00005fb8       ??_C@_1BG@GEGPMCDJ@?$AAu?$AAz?$AA?9?$AAu?$AAz?$AA?9?$AAc?$AAy?$AAr?$AAl?$AA?$AA@ 0000000180023fb8     libucrt:lcidtoname_downlevel.obj
 0002:00005fd0       ??_C@_1BG@EGGKJILM@?$AAu?$AAz?$AA?9?$AAu?$AAz?$AA?9?$AAl?$AAa?$AAt?$AAn?$AA?$AA@ 0000000180023fd0     libucrt:lcidtoname_downlevel.obj
 0002:00005fe8       ??_C@_1M@GFOCLFF@?$AAv?$AAi?$AA?9?$AAv?$AAn?$AA?$AA@ 0000000180023fe8     libucrt:lcidtoname_downlevel.obj
 0002:00005ff8       ??_C@_1M@CPAMEDFI@?$AAx?$AAh?$AA?9?$AAz?$AAa?$AA?$AA@ 0000000180023ff8     libucrt:lcidtoname_downlevel.obj
 0002:00006008       ??_C@_1O@EBKIFIGN@?$AAz?$AAh?$AA?9?$AAc?$AAh?$AAs?$AA?$AA@ 0000000180024008     libucrt:lcidtoname_downlevel.obj
 0002:00006018       ??_C@_1O@NMHPGANE@?$AAz?$AAh?$AA?9?$AAc?$AAh?$AAt?$AA?$AA@ 0000000180024018     libucrt:lcidtoname_downlevel.obj
 0002:00006028       ??_C@_1M@LPINJOMC@?$AAz?$AAh?$AA?9?$AAc?$AAn?$AA?$AA@ 0000000180024028     libucrt:lcidtoname_downlevel.obj
 0002:00006038       ??_C@_1M@OCJEJODD@?$AAz?$AAh?$AA?9?$AAh?$AAk?$AA?$AA@ 0000000180024038     libucrt:lcidtoname_downlevel.obj
 0002:00006048       ??_C@_1M@DNDLJINH@?$AAz?$AAh?$AA?9?$AAm?$AAo?$AA?$AA@ 0000000180024048     libucrt:lcidtoname_downlevel.obj
 0002:00006058       ??_C@_1M@MBFDNDND@?$AAz?$AAh?$AA?9?$AAs?$AAg?$AA?$AA@ 0000000180024058     libucrt:lcidtoname_downlevel.obj
 0002:00006068       ??_C@_1M@IMEPLEPE@?$AAz?$AAh?$AA?9?$AAt?$AAw?$AA?$AA@ 0000000180024068     libucrt:lcidtoname_downlevel.obj
 0002:00006078       ??_C@_1M@BBGHNHJP@?$AAz?$AAu?$AA?9?$AAz?$AAa?$AA?$AA@ 0000000180024078     libucrt:lcidtoname_downlevel.obj
 0002:00006084       ??_C@_00CNPNBAHC@?$AA@     0000000180024084     libucrt:mbrtowc.obj
 0002:00006090       ?large_power_data@?1??multiply_by_power_of_ten@__crt_strtox@@YA_NAEAUbig_integer@2@I@Z@4QBIB 0000000180024090     libucrt:cfout.obj
 0002:000069a0       ?large_power_indices@?1??multiply_by_power_of_ten@__crt_strtox@@YA_NAEAUbig_integer@2@I@Z@4QBUunpack_index@?1??12@YA_N0I@Z@B 00000001800249a0     libucrt:cfout.obj
 0002:00006a38       ?small_powers_of_ten@?1??multiply_by_power_of_ten@__crt_strtox@@YA_NAEAUbig_integer@2@I@Z@4QBIB 0000000180024a38     libucrt:cfout.obj
 0002:00006a5c       ??_C@_01GBGANLPD@0?$AA@    0000000180024a5c     libucrt:cfout.obj
 0002:00006a60       ??_C@_05DNEBIAHO@1?$CDINF?$AA@ 0000000180024a60     libucrt:cfout.obj
 0002:00006a68       ??_C@_06IMKFLFPG@1?$CDQNAN?$AA@ 0000000180024a68     libucrt:cfout.obj
 0002:00006a70       ??_C@_06PGGFOGJG@1?$CDSNAN?$AA@ 0000000180024a70     libucrt:cfout.obj
 0002:00006a78       ??_C@_05PHHOCPM@1?$CDIND?$AA@ 0000000180024a78     libucrt:cfout.obj
 0002:00006a80       __real@3ff0000000000000    0000000180024a80     libucrt:ceil.obj
 0002:00006d08       ??_C@_1BA@BALFACEM@?$AAC?$AAO?$AAN?$AAO?$AAU?$AAT?$AA$?$AA?$AA@ 0000000180024d08     libucrt:initcon.obj
 0002:00006d20       __log10_256_lead           0000000180024d20     libucrt:log10_256_lead_tail_table.obj
 0002:00007530       __log10_256_tail           0000000180025530     libucrt:log10_256_lead_tail_table.obj
 0002:00007d40       __log_F_inv_qword          0000000180025d40     libucrt:log_f_inv_qword_table.obj
 0002:00008550       ??_C@_05HGHHAHAP@log10?$AA@ 0000000180026550     libucrt:log_special.obj
 0002:00008570       ??_C@_1BK@DBDEIDLH@?$AAK?$AAE?$AAR?$AAN?$AAE?$AAL?$AA3?$AA2?$AA?4?$AAD?$AAL?$AAL@ 0000000180026570     DelayImp:delayhlp.obj
 0002:00008590       ??_C@_0BI@OMNLIJDB@AcquireSRWLockExclusive@ 0000000180026590     DelayImp:delayhlp.obj
 0002:000085a8       ??_C@_0BI@HMIEPCNJ@ReleaseSRWLockExclusive@ 00000001800265a8     DelayImp:delayhlp.obj
 0002:000085c0       __pfnDliFailureHook2       00000001800265c0     DelayImp:delayhk1.obj
 0002:000085d0       _load_config_used          00000001800265d0     LIBCMT:loadcfg.obj
 0002:000086d0       ??_C@_1DG@OKCGPKIB@?$AAp?$AAe?$AAr?$AAs?$AAi?$AAs?$AAt?$AAe?$AAn?$AAt?$AA?$CI?$AA?$CJ?$AA?4?$AAI?$AAs@ 00000001800266d0     kerberos.obj
 0002:00008708       ??_C@_1CO@EGNPJLKI@?$AAp?$AAe?$AAr?$AAs?$AAi?$AAs?$AAt?$AAe?$AAn?$AAt?$AA?$CI?$AA?$CJ?$AA?4?$AAI?$AAs@ 0000000180026708     kerberos.obj
 0002:00008738       ??_C@_1DA@FBGAEOIO@?$AA?$CB?$AAp?$AAe?$AAr?$AAs?$AAi?$AAs?$AAt?$AAe?$AAn?$AAt?$AA?$CI?$AA?$CJ?$AA?4?$AAI@ 0000000180026738     kerberos.obj
 0002:00008768       ??_C@_1CO@JCKLEFMA@?$AA?$CB?$AAp?$AAe?$AAr?$AAs?$AAi?$AAs?$AAt?$AAe?$AAn?$AAt?$AA?$CI?$AA?$CJ?$AA?4?$AAI@ 0000000180026768     kerberos.obj
 0002:00008798       ??_C@_1BE@GMLLOIPJ@?$AAr?$AAe?$AAf?$AAs?$AA_?$AA?5?$AA?$DO?$AA?5?$AA0@ 0000000180026798     kerberos.obj
 0002:000087b0       ??_C@_1CC@GBFLAAPF@?$AAw?$AAr?$AAa?$AAp?$AA?9?$AA?$DO?$AAr?$AAe?$AAf?$AAs?$AA_?$AA?5?$AA?$DN?$AA?$DN?$AA?5@ 00000001800267b0     kerberos.obj
 0002:000087e0       ??_C@_1LK@EKGNEKKD@?$AAc?$AA?3?$AA?2?$AAu?$AAs?$AAe?$AAr?$AAs?$AA?2?$AAh?$AAa?$AAy?$AAd?$AAe?$AA?2@ 00000001800267e0     kerberos.obj
 0002:000088a0       ??_C@_1EC@MGGLMBLC@?$AAo?$AAb?$AAj?$AAe?$AAc?$AAt?$AA?9?$AA?$DO?$AAI?$AAn?$AAt?$AAe?$AAr?$AAn?$AAa@ 00000001800268a0     kerberos.obj
 0002:000088e8       ??_C@_1DI@ELDBKNAK@?$AAw?$AAr?$AAa?$AAp?$AA?9?$AA?$DO?$AAh?$AAa?$AAn?$AAd?$AAl?$AAe?$AA_?$AA?4?$AAI@ 00000001800268e8     kerberos.obj
 0002:00008920       ??_C@_08DEIMIBAF@Kerberos@ 0000000180026920     kerberos.obj
 0002:00008930       ??_C@_0GG@GDAJLBEP@c?3?2users?2hayde?2documents?2github@ 0000000180026930     kerberos.obj
 0002:00008998       ??_C@_08LGHNADKG@kerberos@ 0000000180026998     kerberos.obj
 0002:000089a8       ??_7Kerberos@@6B@          00000001800269a8     kerberos.obj
 0002:000089c0       ??_7ObjectWrap@Nan@@6B@    00000001800269c0     kerberos.obj
 0002:00008aa8       __pfnDliNotifyHook2        0000000180026aa8     win_delay_load_hook.obj
 0002:00008ab0       ??_7Worker@@6B@            0000000180026ab0     worker.obj
 0002:00008ab8       ??_C@_0P@LNGNLCKE@EncryptMessage@ 0000000180026ab8     kerberos_sspi.obj
 0002:00008ac8       ??_C@_0BI@BMOGBFHP@GetProcAddress?5failed?4?6@ 0000000180026ac8     kerberos_sspi.obj
 0002:00008ae0       ??_C@_0BK@KPHFEPAJ@AcquireCredentialsHandleA@ 0000000180026ae0     kerberos_sspi.obj
 0002:00008b00       ??_C@_0BH@DHOJIPDE@FreeCredentialsHandleA@ 0000000180026b00     kerberos_sspi.obj
 0002:00008b18       ??_C@_0DE@PIPJDLJK@GetProcAddress?5failed?5_sspi_Fre@ 0000000180026b18     kerberos_sspi.obj
 0002:00008b50       ??_C@_0BG@LNIAGFEF@DeleteSecurityContext@ 0000000180026b50     kerberos_sspi.obj
 0002:00008b68       ??_C@_0P@ELKOFCKB@DecryptMessage@ 0000000180026b68     kerberos_sspi.obj
 0002:00008b78       ??_C@_0BL@GGJLPDDN@InitializeSecurityContextA@ 0000000180026b78     kerberos_sspi.obj
 0002:00008b98       ??_C@_0BI@MJIBHNH@QueryContextAttributesA@ 0000000180026b98     kerberos_sspi.obj
 0002:00008bb0       ??_C@_0BH@COAKKLLC@InitSecurityInterfaceA@ 0000000180026bb0     kerberos_sspi.obj
 0002:00008bc8       ??_C@_0DC@EKEJAFJE@Failed?5in?5getting?5the?5function?5@ 0000000180026bc8     kerberos_sspi.obj
 0002:00008c00       ??_C@_0DA@FHAHAAHH@Failed?5in?5getting?5the?5function?5@ 0000000180026c00     kerberos_sspi.obj
 0002:00008c30       ??_C@_0N@PJNJBDOG@security?4dll@ 0000000180026c30     kerberos_sspi.obj
 0002:00008c40       ??_C@_0M@KOFABFN@secur32?4dll@ 0000000180026c40     kerberos_sspi.obj
 0002:00008c50       ??_C@_1KC@NEFDKOND@?$AAc?$AA?3?$AA?2?$AAu?$AAs?$AAe?$AAr?$AAs?$AA?2?$AAh?$AAa?$AAy?$AAd?$AAe?$AA?2@ 0000000180026c50     security_buffer.obj
 0002:00008d00       ??_C@_1FM@LOELJOFK@?$AAs?$AAi?$AAz?$AAe?$AA?5?$AA?$DM?$AA?$DN?$AA?5?$AAi?$AAm?$AAp?$AA?3?$AA?3?$AAk?$AAM@ 0000000180026d00     security_buffer.obj
 0002:00008d60       ??_C@_0FA@CHIMFPJK@Two?5parameters?5needed?5integer?5b@ 0000000180026d60     security_buffer.obj
 0002:00008db0       ??_C@_0P@PGNLMPCG@SecurityBuffer@ 0000000180026db0     security_buffer.obj
 0002:00008dc0       ??_C@_08GOCDALDA@toBuffer@ 0000000180026dc0     security_buffer.obj
 0002:00008dd0       ??_C@_1CE@LNAGEONJ@?$AA?$CB?$AAo?$AAb?$AAj?$AAe?$AAc?$AAt?$AA?4?$AAI?$AAs?$AAE?$AAm?$AAp?$AAt?$AAy@ 0000000180026dd0     security_buffer.obj
 0002:00008df8       ??_7SecurityBuffer@@6B@    0000000180026df8     security_buffer.obj
 0002:00008e10       ??_C@_0GI@EKMIFBJO@There?5must?5be?51?5argument?5passed@ 0000000180026e10     security_buffer_descriptor.obj
 0002:00008e78       ??_C@_0BJ@KIPAPIEL@SecurityBufferDescriptor@ 0000000180026e78     security_buffer_descriptor.obj
 0002:00008e98       ??_7SecurityBufferDescriptor@@6B@ 0000000180026e98     security_buffer_descriptor.obj
 0002:00008eb0       ??_C@_0BC@EBHDFLHM@nan?3Callback?3Call@ 0000000180026eb0     security_context.obj
 0002:00008ec4       ??_C@_04NDFOBODE@code@     0000000180026ec4     security_context.obj
 0002:00008ed0       ??_C@_0DC@JPMAGDAJ@Failed?5in?5retrieving?5security?5p@ 0000000180026ed0     security_context.obj
 0002:00008f08       ??_C@_0CH@KCDKPOE@Failed?5in?5retrieving?5security?5p@ 0000000180026f08     security_context.obj
 0002:00008f30       ??_C@_0GB@HCGEPCCF@SEC_E_INSUFFICIENT_MEMORY?5There@ 0000000180026f30     security_context.obj
 0002:00008fa0       ??_C@_0EP@KOKMDCGO@SEC_E_INTERNAL_ERROR?5An?5error?5o@ 0000000180026fa0     security_context.obj
 0002:00008ff0       ??_C@_0EF@KFOMANMH@SEC_E_INVALID_HANDLE?5The?5handle@ 0000000180026ff0     security_context.obj
 0002:00009040       ??_C@_0BCN@FHCBAGBO@SEC_E_INVALID_TOKEN?5The?5error?5i@ 0000000180027040     security_context.obj
 0002:00009170       ??_C@_0CF@EOEOILEK@SEC_E_LOGON_DENIED?5The?5logon?5fa@ 0000000180027170     security_context.obj
 0002:000091a0       ??_C@_0OK@PHMMCNKE@SEC_E_NO_AUTHENTICATING_AUTHORI@ 00000001800271a0     security_context.obj
 0002:00009290       ??_C@_0EL@NAJPEBLN@SEC_E_NO_CREDENTIALS?5No?5credent@ 0000000180027290     security_context.obj
 0002:000092e0       ??_C@_0DE@CHDEPDAH@SEC_E_TARGET_UNKNOWN?5The?5target@ 00000001800272e0     security_context.obj
 0002:00009320       ??_C@_0KB@DPMKFMBL@SEC_E_UNSUPPORTED_FUNCTION?5A?5co@ 0000000180027320     security_context.obj
 0002:000093d0       ??_C@_0ME@OFGBPMFG@SEC_E_WRONG_PRINCIPAL?5The?5princ@ 00000001800273d0     security_context.obj
 0002:000094a0       ??_C@_0HN@DGPLJDBF@Initialize?5must?5be?5called?5with?5@ 00000001800274a0     security_context.obj
 0002:00009520       ??_C@_0EK@MPIIBFCL@First?5parameter?5for?5Initialize?5@ 0000000180027520     security_context.obj
 0002:00009570       ??_C@_0DB@LHOIJJPJ@Second?5parameter?5for?5Initialize@ 0000000180027570     security_context.obj
 0002:000095a8       ??_C@_0DL@DOCDOHJC@Third?5parameter?5for?5Initialize?5@ 00000001800275a8     security_context.obj
 0002:000095f0       ??_C@_0FO@DMPEOCEP@Initialize?5must?5be?5called?5with?5@ 00000001800275f0     security_context.obj
 0002:00009650       ??_C@_0DA@FAEGHCCC@First?5parameter?5for?5Initialize?5@ 0000000180027650     security_context.obj
 0002:00009680       ??_C@_0GG@OPEHPKBE@EncryptMessage?5takes?5an?5instanc@ 0000000180027680     security_context.obj
 0002:000096f0       ??_C@_0FF@DCBNJPEC@DecryptMessage?5takes?5an?5instanc@ 00000001800276f0     security_context.obj
 0002:00009748       ??_C@_08KCCECGFG@maxToken@ 0000000180027748     security_context.obj
 0002:00009758       ??_C@_0N@DBOCONKA@maxSignature@ 0000000180027758     security_context.obj
 0002:00009768       ??_C@_09NKOHFFHE@blockSize@ 0000000180027768     security_context.obj
 0002:00009778       ??_C@_0BA@FMIKGFAP@securityTrailer@ 0000000180027778     security_context.obj
 0002:00009790       ??_C@_0FN@KPCLPFDP@QueryContextAttributes?5method?5t@ 0000000180027790     security_context.obj
 0002:000097f0       ??_C@_0EF@LHGFKNB@QueryContextAttributes?5only?5sup@ 00000001800277f0     security_context.obj
 0002:00009838       ??_C@_0BA@GNEIOCIH@SecurityContext@ 0000000180027838     security_context.obj
 0002:00009848       ??_C@_0L@COJDPPJA@initialize@ 0000000180027848     security_context.obj
 0002:00009858       ??_C@_0P@MDGLGMDP@decryptMessage@ 0000000180027858     security_context.obj
 0002:00009868       ??_C@_0BH@CNDCJCFF@queryContextAttributes@ 0000000180027868     security_context.obj
 0002:00009880       ??_C@_0P@DFKIIMDK@encryptMessage@ 0000000180027880     security_context.obj
 0002:00009890       ??_C@_07EAGCNIPD@payload@  0000000180027890     security_context.obj
 0002:00009898       ??_C@_0L@HAGNPKDM@hasContext@ 0000000180027898     security_context.obj
 0002:000098b0       ??_C@_0FE@BBCFDPPF@SEC_E_BUFFER_TOO_SMALL?5?9?5The?5me@ 00000001800278b0     security_context.obj
 0002:00009910       ??_C@_0HF@NKBADJBH@SEC_E_CRYPTO_SYSTEM_INVALID?5?9?5T@ 0000000180027910     security_context.obj
 0002:00009990       ??_C@_0KM@EKLHGFOE@SEC_E_INCOMPLETE_MESSAGE?5?9?5The?5@ 0000000180027990     security_context.obj
 0002:00009a40       ??_C@_0IM@BILLKCAN@SEC_E_INVALID_HANDLE?5?9?5A?5contex@ 0000000180027a40     security_context.obj
 0002:00009ad0       ??_C@_0ID@NGKIHGM@SEC_E_INVALID_TOKEN?5?9?5The?5buffe@ 0000000180027ad0     security_context.obj
 0002:00009b60       ??_C@_0FO@JHJGDCDJ@SEC_E_MESSAGE_ALTERED?5?9?5The?5mes@ 0000000180027b60     security_context.obj
 0002:00009bc0       ??_C@_0EO@HCKPPGBO@SEC_E_OUT_OF_SEQUENCE?5?9?5The?5mes@ 0000000180027bc0     security_context.obj
 0002:00009c10       ??_C@_0IB@ONCCLLPA@SEC_E_QOP_NOT_SUPPORTED?5?9?5Neith@ 0000000180027c10     security_context.obj
 0002:00009ca0       ??_C@_0GL@BGCLCBIE@SEC_I_CONTEXT_EXPIRED?5?9?5The?5mes@ 0000000180027ca0     security_context.obj
 0002:00009d10       ??_C@_0HJ@FFIIBIJK@SEC_I_RENEGOTIATE?5?9?5The?5remote?5@ 0000000180027d10     security_context.obj
 0002:00009d90       ??_C@_0ED@EPAKHBJA@SEC_E_ENCRYPT_FAILURE?5?9?5The?5spe@ 0000000180027d90     security_context.obj
 0002:00009de0       ??_C@_0ED@GPIFOGHF@SEC_E_DECRYPT_FAILURE?5?9?5The?5spe@ 0000000180027de0     security_context.obj
 0002:00009e28       ??_C@_0CE@HAAKKMGE@Failed?5to?5load?5security?4dll?5lib@ 0000000180027e28     security_context.obj
 0002:00009e50       ??_7SecurityContext@@6B@   0000000180027e50     security_context.obj
 0002:00009e70       ??_C@_0HK@BCLOBFGK@Acquire?5must?5be?5called?5with?5eit@ 0000000180027e70     security_credentials.obj
 0002:00009ef0       ??_C@_0BE@LGGAFGDB@SecurityCredentials@ 0000000180027ef0     security_credentials.obj
 0002:00009f08       ??_C@_07MEFPPMEF@acquire@  0000000180027f08     security_credentials.obj
 0002:00009f10       ??_C@_0KI@MIGAHMJN@SEC_E_INCOMPLETE_MESSAGE?5?9?5The?5@ 0000000180027f10     security_credentials.obj
 0002:00009fb8       ??_7SecurityCredentials@@6B@ 0000000180027fb8     security_credentials.obj
 0002:00009fd0       ??_C@_08HCOMDCCD@iojs?4exe@ 0000000180027fd0     win_delay_load_hook.obj
 0002:00009fe0       ??_C@_08JDDNMFDB@node?4exe@ 0000000180027fe0     win_delay_load_hook.obj
 0002:00009ff0       __real@bff0000000000000    0000000180027ff0     security_context.obj
 0002:0000a070       ??_R4exception@std@@6B@    0000000180028070     LIBCMT:throw_bad_alloc.obj
 0002:0000a098       ??_R3exception@std@@8      0000000180028098     LIBCMT:throw_bad_alloc.obj
 0002:0000a0b0       ??_R2exception@std@@8      00000001800280b0     LIBCMT:throw_bad_alloc.obj
 0002:0000a0c0       ??_R1A@?0A@EA@exception@std@@8 00000001800280c0     LIBCMT:throw_bad_alloc.obj
 0002:0000a0e8       ??_R4bad_alloc@std@@6B@    00000001800280e8     LIBCMT:throw_bad_alloc.obj
 0002:0000a110       ??_R3bad_alloc@std@@8      0000000180028110     LIBCMT:throw_bad_alloc.obj
 0002:0000a128       ??_R2bad_alloc@std@@8      0000000180028128     LIBCMT:throw_bad_alloc.obj
 0002:0000a140       ??_R1A@?0A@EA@bad_alloc@std@@8 0000000180028140     LIBCMT:throw_bad_alloc.obj
 0002:0000a168       ??_R4bad_array_new_length@std@@6B@ 0000000180028168     LIBCMT:throw_bad_alloc.obj
 0002:0000a190       ??_R3bad_array_new_length@std@@8 0000000180028190     LIBCMT:throw_bad_alloc.obj
 0002:0000a1a8       ??_R2bad_array_new_length@std@@8 00000001800281a8     LIBCMT:throw_bad_alloc.obj
 0002:0000a1c8       ??_R1A@?0A@EA@bad_array_new_length@std@@8 00000001800281c8     LIBCMT:throw_bad_alloc.obj
 0002:0000a1f0       ??_R4type_info@@6B@        00000001800281f0     LIBCMT:std_type_info_static.obj
 0002:0000a218       ??_R3type_info@@8          0000000180028218     LIBCMT:std_type_info_static.obj
 0002:0000a230       ??_R2type_info@@8          0000000180028230     LIBCMT:std_type_info_static.obj
 0002:0000a240       ??_R1A@?0A@EA@type_info@@8 0000000180028240     LIBCMT:std_type_info_static.obj
 0002:0000a268       ??_R4bad_exception@std@@6B@ 0000000180028268     libvcruntime:frame.obj
 0002:0000a290       ??_R3bad_exception@std@@8  0000000180028290     libvcruntime:frame.obj
 0002:0000a2a8       ??_R2bad_exception@std@@8  00000001800282a8     libvcruntime:frame.obj
 0002:0000a2c0       ??_R1A@?0A@EA@bad_exception@std@@8 00000001800282c0     libvcruntime:frame.obj
 0002:0000a6e8       __rtc_iaa                  00000001800286e8     LIBCMT:_initsect_.obj
 0002:0000a6f0       __rtc_izz                  00000001800286f0     LIBCMT:_initsect_.obj
 0002:0000a6f8       __rtc_taa                  00000001800286f8     LIBCMT:_initsect_.obj
 0002:0000a700       __rtc_tzz                  0000000180028700     LIBCMT:_initsect_.obj
 0002:0000bef8       _TI2?AVbad_alloc@std@@     0000000180029ef8     LIBCMT:throw_bad_alloc.obj
 0002:0000bf18       _CTA2?AVbad_alloc@std@@    0000000180029f18     LIBCMT:throw_bad_alloc.obj
 0002:0000bf30       _CT??_R0?AVbad_alloc@std@@@8??0bad_alloc@std@@QEAA@AEBV01@@Z24 0000000180029f30     LIBCMT:throw_bad_alloc.obj
 0002:0000bf58       _CT??_R0?AVexception@std@@@8??0exception@std@@QEAA@AEBV01@@Z24 0000000180029f58     LIBCMT:throw_bad_alloc.obj
 0002:0000bf80       _TI3?AVbad_array_new_length@std@@ 0000000180029f80     LIBCMT:throw_bad_alloc.obj
 0002:0000bfa0       _CTA3?AVbad_array_new_length@std@@ 0000000180029fa0     LIBCMT:throw_bad_alloc.obj
 0002:0000bfc0       _CT??_R0?AVbad_array_new_length@std@@@8??0bad_array_new_length@std@@QEAA@AEBV01@@Z24 0000000180029fc0     LIBCMT:throw_bad_alloc.obj
 0002:0000bfe8       _TI2?AVbad_exception@std@@ 0000000180029fe8     libvcruntime:frame.obj
 0002:0000c008       _CTA2?AVbad_exception@std@@ 000000018002a008     libvcruntime:frame.obj
 0002:0000c020       _CT??_R0?AVbad_exception@std@@@8??0bad_exception@std@@QEAA@AEBV01@@Z24 000000018002a020     libvcruntime:frame.obj
 0002:0000c044       __DELAY_IMPORT_DESCRIPTOR_node_exe 000000018002a044     node:node.exe
 0002:0000c064       __NULL_DELAY_IMPORT_DESCRIPTOR 000000018002a064     node:node.exe
 0002:0000c2e0       \177node_NULL_THUNK_DATA_DLN 000000018002a2e0     node:node.exe
 0002:0000d698       \177node_NULL_THUNK_DATA_DLB 000000018002b698     node:node.exe
 0002:0000d944       __IMPORT_DESCRIPTOR_KERNEL32 000000018002b944     kernel32:KERNEL32.dll
 0002:0000d958       __NULL_IMPORT_DESCRIPTOR   000000018002b958     kernel32:KERNEL32.dll
 0003:00000000       __scrt_native_dllmain_reason 000000018002d000     LIBCMT:utility.obj
 0003:00000008       __security_cookie_complement 000000018002d008     LIBCMT:gs_cookie.obj
 0003:00000010       __security_cookie          000000018002d010     LIBCMT:gs_cookie.obj
 0003:00000018       __isa_available            000000018002d018     LIBCMT:_cpu_disp_.obj
 0003:0000001c       __isa_enabled              000000018002d01c     LIBCMT:_cpu_disp_.obj
 0003:00000020       __memcpy_nt_iters          000000018002d020     LIBCMT:_cpu_disp_.obj
 0003:00000040       _iob                       000000018002d040     libucrt:_file.obj
 0003:00000148       __abort_behavior           000000018002d148     libucrt:abort.obj
 0003:00000160       __badioinfo                000000018002d160     libucrt:ioinit.obj
 0003:000001b0       __acrt_initial_locale_data 000000018002d1b0     libucrt:nlsdata.obj
 0003:00000308       __acrt_initial_locale_pointers 000000018002d308     libucrt:nlsdata.obj
 0003:00000318       __acrt_wide_c_locale_string 000000018002d318     libucrt:nlsdata.obj
 0003:00000410       __acrt_initial_multibyte_data 000000018002d410     libucrt:mbctype.obj
 0003:00000850       _pwctype                   000000018002d850     libucrt:ctype.obj
 0003:00000858       __globallocalestatus       000000018002d858     libucrt:glstatus.obj
 0003:00000860       __acrt_lconv_c             000000018002d860     libucrt:localeconv.obj
 0003:000008f8       __acrt_lconv_static_decimal 000000018002d8f8     libucrt:localeconv.obj
 0003:000008fc       __acrt_lconv_static_W_decimal 000000018002d8fc     libucrt:localeconv.obj
 0003:00000920       _fltused                   000000018002d920     LIBCMT:fltused.obj
 0003:00000970       ??_R0?AVbad_alloc@std@@@8  000000018002d970     LIBCMT:throw_bad_alloc.obj
 0003:00000998       ??_R0?AVexception@std@@@8  000000018002d998     LIBCMT:throw_bad_alloc.obj
 0003:000009c0       ??_R0?AVbad_array_new_length@std@@@8 000000018002d9c0     LIBCMT:throw_bad_alloc.obj
 0003:000009f0       ??_R0?AVtype_info@@@8      000000018002d9f0     LIBCMT:std_type_info_static.obj
 0003:00000a10       ??_R0?AVbad_exception@std@@@8 000000018002da10     libvcruntime:frame.obj
 0003:00000a38       __imp_?Value@External@v8@@QEBAPEAXXZ 000000018002da38     node:node.exe
 0003:00000a40       __imp_?New@External@v8@@SA?AV?$Local@VExternal@v8@@@2@PEAVIsolate@2@PEAX@Z 000000018002da40     node:node.exe
 0003:00000a48       __imp_?GetCurrentContext@Isolate@v8@@QEAA?AV?$Local@VContext@v8@@@2@XZ 000000018002da48     node:node.exe
 0003:00000a50       __imp_?GetCurrent@Isolate@v8@@SAPEAV12@XZ 000000018002da50     node:node.exe
 0003:00000a58       __imp_?CreateHandle@HandleScope@v8@@KAPEAPEAVObject@internal@2@PEAVIsolate@42@PEAV342@@Z 000000018002da58     node:node.exe
 0003:00000a60       __imp_?CreateHandle@HandleScope@v8@@CAPEAPEAVObject@internal@2@PEAVHeapObject@42@PEAV342@@Z 000000018002da60     node:node.exe
 0003:00000a68       __imp_??1HandleScope@v8@@QEAA@XZ 000000018002da68     node:node.exe
 0003:00000a70       __imp_??0HandleScope@v8@@QEAA@PEAVIsolate@1@@Z 000000018002da70     node:node.exe
 0003:00000a78       __imp_?SetClassName@FunctionTemplate@v8@@QEAAXV?$Local@VString@v8@@@2@@Z 000000018002da78     node:node.exe
 0003:00000a80       __imp_?InstanceTemplate@FunctionTemplate@v8@@QEAA?AV?$Local@VObjectTemplate@v8@@@2@XZ 000000018002da80     node:node.exe
 0003:00000a88       __imp_?GetFunction@FunctionTemplate@v8@@QEAA?AV?$Local@VFunction@v8@@@2@XZ 000000018002da88     node:node.exe
 0003:00000a90       __imp_?New@FunctionTemplate@v8@@SA?AV?$Local@VFunctionTemplate@v8@@@2@PEAVIsolate@2@P6AXAEBV?$FunctionCallbackInfo@VValue@v8@@@2@@ZV?$Local@VValue@v8@@@2@V?$Local@VSignature@v8@@@2@HW4ConstructorBehavior@2@W4SideEffectType@2@@Z 000000018002da90     node:node.exe
 0003:00000a98       __imp_?ToLocalEmpty@V8@v8@@CAXXZ 000000018002da98     node:node.exe
 0003:00000aa0       __imp_?ClearWeak@V8@v8@@CAPEAXPEAPEAVObject@internal@2@@Z 000000018002daa0     node:node.exe
 0003:00000aa8       __imp_?MakeWeak@V8@v8@@CAXPEAPEAVObject@internal@2@PEAXP6AXAEBV?$WeakCallbackInfo@X@2@@ZW4WeakCallbackType@2@@Z 000000018002daa8     node:node.exe
 0003:00000ab0       __imp_?DisposeGlobal@V8@v8@@CAXPEAPEAVObject@internal@2@@Z 000000018002dab0     node:node.exe
 0003:00000ab8       __imp_?GlobalizeReference@V8@v8@@CAPEAPEAVObject@internal@2@PEAVIsolate@42@PEAPEAV342@@Z 000000018002dab8     node:node.exe
 0003:00000ac0       __imp_?Escape@EscapableHandleScope@v8@@AEAAPEAPEAVObject@internal@2@PEAPEAV342@@Z 000000018002dac0     node:node.exe
 0003:00000ac8       __imp_??0EscapableHandleScope@v8@@QEAA@PEAVIsolate@1@@Z 000000018002dac8     node:node.exe
 0003:00000ad0       __imp_?NewFromUtf8@String@v8@@SA?AV?$MaybeLocal@VString@v8@@@2@PEAVIsolate@2@PEBDW4NewStringType@2@H@Z 000000018002dad0     node:node.exe
 0003:00000ad8       __imp_?SlowGetInternalField@Object@v8@@AEAA?AV?$Local@VValue@v8@@@2@H@Z 000000018002dad8     node:node.exe
 0003:00000ae0       __imp_?SetAlignedPointerInInternalField@Object@v8@@QEAAXHPEAX@Z 000000018002dae0     node:node.exe
 0003:00000ae8       __imp_?SetInternalField@Object@v8@@QEAAXHV?$Local@VValue@v8@@@2@@Z 000000018002dae8     node:node.exe
 0003:00000af0       __imp_?InternalFieldCount@Object@v8@@QEAAHXZ 000000018002daf0     node:node.exe
 0003:00000af8       __imp_?Set@Object@v8@@QEAA?AV?$Maybe@_N@2@V?$Local@VContext@v8@@@2@V?$Local@VValue@v8@@@2@1@Z 000000018002daf8     node:node.exe
 0003:00000b00       __imp_?SetInternalFieldCount@ObjectTemplate@v8@@QEAAXH@Z 000000018002db00     node:node.exe
 0003:00000b08       __imp_?NewInstance@ObjectTemplate@v8@@QEAA?AV?$MaybeLocal@VObject@v8@@@2@V?$Local@VContext@v8@@@2@@Z 000000018002db08     node:node.exe
 0003:00000b10       __imp_?New@ObjectTemplate@v8@@SA?AV?$Local@VObjectTemplate@v8@@@2@PEAVIsolate@2@V?$Local@VFunctionTemplate@v8@@@2@@Z 000000018002db10     node:node.exe
 0003:00000b18       __imp_node_module_register 000000018002db18     node:node.exe
 0003:00000b20       __imp_?New@Signature@v8@@SA?AV?$Local@VSignature@v8@@@2@PEAVIsolate@2@V?$Local@VFunctionTemplate@v8@@@2@@Z 000000018002db20     node:node.exe
 0003:00000b28       __imp_?ThrowException@Isolate@v8@@QEAA?AV?$Local@VValue@v8@@@2@V32@@Z 000000018002db28     node:node.exe
 0003:00000b30       __imp_?Set@Template@v8@@QEAAXV?$Local@VName@v8@@@2@V?$Local@VData@v8@@@2@W4PropertyAttribute@2@@Z 000000018002db30     node:node.exe
 0003:00000b38       __imp_?Error@Exception@v8@@SA?AV?$Local@VValue@v8@@@2@V?$Local@VString@v8@@@2@@Z 000000018002db38     node:node.exe
 0003:00000b40       __imp_?PrototypeTemplate@FunctionTemplate@v8@@QEAA?AV?$Local@VObjectTemplate@v8@@@2@XZ 000000018002db40     node:node.exe
 0003:00000b48       __imp_?FromJustIsNothing@V8@v8@@CAXXZ 000000018002db48     node:node.exe
 0003:00000b50       __imp_?Uint32Value@Value@v8@@QEBA?AV?$Maybe@I@2@V?$Local@VContext@v8@@@2@@Z 000000018002db50     node:node.exe
 0003:00000b58       __imp_?IsInt32@Value@v8@@QEBA_NXZ 000000018002db58     node:node.exe
 0003:00000b60       __imp_?SlowGetAlignedPointerFromInternalField@Object@v8@@AEAAPEAXH@Z 000000018002db60     node:node.exe
 0003:00000b68       __imp_?Set@Object@v8@@QEAA_NV?$Local@VValue@v8@@@2@0@Z 000000018002db68     node:node.exe
 0003:00000b70       __imp_?HasInstance@Buffer@node@@YA_NV?$Local@VValue@v8@@@v8@@@Z 000000018002db70     node:node.exe
 0003:00000b78       __imp_?Data@Buffer@node@@YAPEADV?$Local@VObject@v8@@@v8@@@Z 000000018002db78     node:node.exe
 0003:00000b80       __imp_?Copy@Buffer@node@@YA?AV?$MaybeLocal@VObject@v8@@@v8@@PEAVIsolate@4@PEBD_K@Z 000000018002db80     node:node.exe
 0003:00000b88       __imp_?Length@Buffer@node@@YA_KV?$Local@VObject@v8@@@v8@@@Z 000000018002db88     node:node.exe
 0003:00000b90       __imp_?ToObject@Value@v8@@QEBA?AV?$Local@VObject@v8@@@2@XZ 000000018002db90     node:node.exe
 0003:00000b98       __imp_?New@Integer@v8@@SA?AV?$Local@VInteger@v8@@@2@PEAVIsolate@2@H@Z 000000018002db98     node:node.exe
 0003:00000ba0       __imp_?New@Array@v8@@SA?AV?$Local@VArray@v8@@@2@PEAVIsolate@2@H@Z 000000018002dba0     node:node.exe
 0003:00000ba8       __imp_?Length@Array@v8@@QEBAIXZ 000000018002dba8     node:node.exe
 0003:00000bb0       __imp_?HasInstance@FunctionTemplate@v8@@QEAA_NV?$Local@VValue@v8@@@2@@Z 000000018002dbb0     node:node.exe
 0003:00000bb8       __imp_?ToInt32@Value@v8@@QEBA?AV?$MaybeLocal@VInt32@v8@@@2@V?$Local@VContext@v8@@@2@@Z 000000018002dbb8     node:node.exe
 0003:00000bc0       __imp_?IsObject@Value@v8@@QEBA_NXZ 000000018002dbc0     node:node.exe
 0003:00000bc8       __imp_?IsArray@Value@v8@@QEBA_NXZ 000000018002dbc8     node:node.exe
 0003:00000bd0       __imp_?Get@Object@v8@@QEAA?AV?$Local@VValue@v8@@@2@I@Z 000000018002dbd0     node:node.exe
 0003:00000bd8       __imp_?Set@Object@v8@@QEAA_NIV?$Local@VValue@v8@@@2@@Z 000000018002dbd8     node:node.exe
 0003:00000be0       __imp_?NewInstance@Function@v8@@QEBA?AV?$MaybeLocal@VObject@v8@@@2@V?$Local@VContext@v8@@@2@HQEAV?$Local@VValue@v8@@@2@@Z 000000018002dbe0     node:node.exe
 0003:00000be8       __imp_uv_queue_work        000000018002dbe8     node:node.exe
 0003:00000bf0       __imp_?Global@Context@v8@@QEAA?AV?$Local@VObject@v8@@@2@XZ 000000018002dbf0     node:node.exe
 0003:00000bf8       __imp_?Value@Integer@v8@@QEBA_JXZ 000000018002dbf8     node:node.exe
 0003:00000c00       __imp_?NewFromUnsigned@Integer@v8@@SA?AV?$Local@VInteger@v8@@@2@PEAVIsolate@2@I@Z 000000018002dc00     node:node.exe
 0003:00000c08       __imp_?ToInteger@Value@v8@@QEBA?AV?$MaybeLocal@VInteger@v8@@@2@V?$Local@VContext@v8@@@2@@Z 000000018002dc08     node:node.exe
 0003:00000c10       __imp_?IsUint32@Value@v8@@QEBA_NXZ 000000018002dc10     node:node.exe
 0003:00000c18       __imp_?IsFunction@Value@v8@@QEBA_NXZ 000000018002dc18     node:node.exe
 0003:00000c20       __imp_?HasCaught@TryCatch@v8@@QEBA_NXZ 000000018002dc20     node:node.exe
 0003:00000c28       __imp_??1TryCatch@v8@@QEAA@XZ 000000018002dc28     node:node.exe
 0003:00000c30       __imp_??0TryCatch@v8@@QEAA@PEAVIsolate@1@@Z 000000018002dc30     node:node.exe
 0003:00000c38       __imp_?WriteUtf8@String@v8@@QEBAHPEADHPEAHH@Z 000000018002dc38     node:node.exe
 0003:00000c40       __imp_?Utf8Length@String@v8@@QEBAHXZ 000000018002dc40     node:node.exe
 0003:00000c48       __imp_?New@Object@v8@@SA?AV?$Local@VObject@v8@@@2@PEAVIsolate@2@@Z 000000018002dc48     node:node.exe
 0003:00000c50       __imp_?SetAccessor@ObjectTemplate@v8@@QEAAXV?$Local@VName@v8@@@2@P6AX0AEBV?$PropertyCallbackInfo@VValue@v8@@@2@@ZP6AX0V?$Local@VValue@v8@@@2@AEBV?$PropertyCallbackInfo@X@2@@Z3W4AccessControl@2@W4PropertyAttribute@2@V?$Local@VAccessorSignature@v8@@@2@@Z 000000018002dc50     node:node.exe
 0003:00000c58       __imp_?EmitAsyncDestroy@node@@YAXPEAVIsolate@v8@@Uasync_context@1@@Z 000000018002dc58     node:node.exe
 0003:00000c60       __imp_?FatalException@node@@YAXPEAVIsolate@v8@@AEBVTryCatch@3@@Z 000000018002dc60     node:node.exe
 0003:00000c68       __imp_?MakeCallback@node@@YA?AV?$MaybeLocal@VValue@v8@@@v8@@PEAVIsolate@3@V?$Local@VObject@v8@@@3@V?$Local@VFunction@v8@@@3@HPEAV?$Local@VValue@v8@@@3@Uasync_context@1@@Z 000000018002dc68     node:node.exe
 0003:00000c70       __imp_?EmitAsyncInit@node@@YA?AUasync_context@1@PEAVIsolate@v8@@V?$Local@VObject@v8@@@4@V?$Local@VString@v8@@@4@N@Z 000000018002dc70     node:node.exe
 0003:00000c78       __imp_uv_default_loop      000000018002dc78     node:node.exe
 0003:00000c80       __imp_?ToInteger@Value@v8@@QEBA?AV?$Local@VInteger@v8@@@2@XZ 000000018002dc80     node:node.exe
 0003:00000c88       __imp_?ToString@Value@v8@@QEBA?AV?$Local@VString@v8@@@2@XZ 000000018002dc88     node:node.exe
 0003:00000c90       \177node_NULL_THUNK_DATA_DLA 000000018002dc90     node:node.exe
 0003:00000ca0       __hmod__node_exe           000000018002dca0     node:node.exe
 0003:00000ca8       __scrt_current_native_startup_state 000000018002dca8     LIBCMT:utility.obj
 0003:00000cb0       __scrt_native_startup_lock 000000018002dcb0     LIBCMT:utility.obj
 0003:00001270       __favor                    000000018002e270     LIBCMT:_cpu_disp_.obj
 0003:00001274       __scrt_debugger_hook_flag  000000018002e274     LIBCMT:utility_desktop.obj
 0003:00001280       ?__type_info_root_node@@3U__type_info_node@@A 000000018002e280     LIBCMT:tncleanup.obj
 0003:00001290       ?_OptionsStorage@?1??__local_stdio_scanf_options@@9@4_KA 000000018002e290     LIBCMT:default_local_stdio_options.obj
 0003:000013a0       __pPurecall                000000018002e3a0     libvcruntime:purevirt_data.obj
 0003:000013a8       ?__WinRTOutOfMemoryExceptionCallback@@3P6APEAXXZEA 000000018002e3a8     libvcruntime:ehhelpers.obj
 0003:000013b0       ?pArgList@UnDecorator@@0PEAVReplicator@@EA 000000018002e3b0     libvcruntime:undname.obj
 0003:000013b8       ?pZNameList@UnDecorator@@0PEAVReplicator@@EA 000000018002e3b8     libvcruntime:undname.obj
 0003:000013c0       ?pTemplateArgList@UnDecorator@@0PEAVReplicator@@EA 000000018002e3c0     libvcruntime:undname.obj
 0003:000013c8       ?gName@UnDecorator@@0PEBDEB 000000018002e3c8     libvcruntime:undname.obj
 0003:000013d0       ?name@UnDecorator@@0PEBDEB 000000018002e3d0     libvcruntime:undname.obj
 0003:000013d8       ?disableFlags@UnDecorator@@0KA 000000018002e3d8     libvcruntime:undname.obj
 0003:000013dc       ?fExplicitTemplateParams@UnDecorator@@0_NA 000000018002e3dc     libvcruntime:undname.obj
 0003:000013dd       ?fGetTemplateArgumentList@UnDecorator@@0_NA 000000018002e3dd     libvcruntime:undname.obj
 0003:000013e0       ?m_pGetParameter@UnDecorator@@0P6APEADJ@ZEA 000000018002e3e0     libvcruntime:undname.obj
 0003:000013e8       ?m_CHPENameOffset@UnDecorator@@0KA 000000018002e3e8     libvcruntime:undname.obj
 0003:000013ec       ?m_recursionLevel@UnDecorator@@0KA 000000018002e3ec     libvcruntime:undname.obj
 0003:00001418       _nstream                   000000018002e418     libucrt:_file.obj
 0003:00001420       __piob                     000000018002e420     libucrt:_file.obj
 0003:00001428       _cflush                    000000018002e428     libucrt:_file.obj
 0003:00001448       ?c_exit_complete@?1???R<lambda_6e4b09c48022b2350581041d5f6b0c4c>@@QEBA@XZ@4_NA 000000018002e448     libucrt:exit.obj
 0003:00001558       _environ_table             000000018002e558     libucrt:environment_initialization.obj
 0003:00001560       _wenviron_table            000000018002e560     libucrt:environment_initialization.obj
 0003:00001568       __dcrt_initial_wide_environment 000000018002e568     libucrt:environment_initialization.obj
 0003:00001570       __dcrt_initial_narrow_environment 000000018002e570     libucrt:environment_initialization.obj
 0003:00001578       __acrt_atexit_table        000000018002e578     libucrt:onexit.obj
 0003:00001590       __acrt_at_quick_exit_table 000000018002e590     libucrt:onexit.obj
 0003:00001790       __pioinfo                  000000018002e790     libucrt:ioinit.obj
 0003:00001b90       _nhandle                   000000018002eb90     libucrt:ioinit.obj
 0003:00001ba8       __acrt_stdout_buffer       000000018002eba8     libucrt:_sftbuf.obj
 0003:00001bb0       __acrt_stderr_buffer       000000018002ebb0     libucrt:_sftbuf.obj
 0003:00001bb8       __acrt_locale_changed_data 000000018002ebb8     libucrt:wsetlocale.obj
 0003:00001bc0       __acrt_current_locale_data 000000018002ebc0     libucrt:nlsdata.obj
 0003:00001e10       __acrt_current_multibyte_data 000000018002ee10     libucrt:mbctype.obj
 0003:00001e18       _mbctype                   000000018002ee18     libucrt:mbctype.obj
 0003:00001e20       _mbcasemap                 000000018002ee20     libucrt:mbctype.obj
 0003:00001e30       __argc                     000000018002ee30     libucrt:argv_data.obj
 0003:00001e38       __argv                     000000018002ee38     libucrt:argv_data.obj
 0003:00001e40       __wargv                    000000018002ee40     libucrt:argv_data.obj
 0003:00001e48       _acmdln                    000000018002ee48     libucrt:argv_data.obj
 0003:00001e50       _wcmdln                    000000018002ee50     libucrt:argv_data.obj
 0003:00001e58       _pgmptr                    000000018002ee58     libucrt:argv_data.obj
 0003:00001e60       __acrt_heap                000000018002ee60     libucrt:heap_handle.obj
 0003:00001e74       __acrt_lconv_static_null   000000018002ee74     libucrt:localeconv.obj
 0003:00001e78       __acrt_lconv_static_W_null 000000018002ee78     libucrt:localeconv.obj
 0003:00001e88       __fma3_is_available        000000018002ee88     libucrt:fma3_available.obj
 0003:00001e8c       __use_fma3_lib             000000018002ee8c     libucrt:fma3_available.obj
 0003:00001e98       ?DloadKernel32@@3PEAUHINSTANCE__@@EA 000000018002ee98     DelayImp:delayhlp.obj
 0003:00001ea0       ?DloadAcquireSRWLockExclusive@@3P6AXPEA_K@ZEA 000000018002eea0     DelayImp:delayhlp.obj
 0003:00001ea8       ?DloadReleaseSRWLockExclusive@@3P6AXPEA_K@ZEA 000000018002eea8     DelayImp:delayhlp.obj
 0003:00001eb0       ?DloadSrwLock@@3_KA        000000018002eeb0     DelayImp:delayhlp.obj
 0003:00001eb8       ?DloadSectionLockCount@@3KA 000000018002eeb8     DelayImp:delayhlp.obj
 0003:00001ebc       ?DloadSectionOldProtection@@3KA 000000018002eebc     DelayImp:delayhlp.obj
 0003:00001ec0       ?DloadSectionCommitPermanent@@3KA 000000018002eec0     DelayImp:delayhlp.obj
 0003:00001ec8       ?constructor_template@Kerberos@@2V?$Persistent@VFunctionTemplate@v8@@V?$NonCopyablePersistentTraits@VFunctionTemplate@v8@@@2@@Nan@@A 000000018002eec8     kerberos.obj
 0003:00001ed0       ?constructor_template@SecurityBuffer@@2V?$Persistent@VFunctionTemplate@v8@@V?$NonCopyablePersistentTraits@VFunctionTemplate@v8@@@2@@Nan@@A 000000018002eed0     security_buffer.obj
 0003:00001ed8       ?constructor_template@SecurityBufferDescriptor@@2V?$Persistent@VFunctionTemplate@v8@@V?$NonCopyablePersistentTraits@VFunctionTemplate@v8@@@2@@Nan@@A 000000018002eed8     security_buffer_descriptor.obj
 0003:00001ee0       ?constructor_template@SecurityContext@@2V?$Persistent@VFunctionTemplate@v8@@V?$NonCopyablePersistentTraits@VFunctionTemplate@v8@@@2@@Nan@@A 000000018002eee0     security_context.obj
 0003:00001ee8       ?constructor_template@SecurityCredentials@@2V?$Persistent@VFunctionTemplate@v8@@V?$NonCopyablePersistentTraits@VFunctionTemplate@v8@@@2@@Nan@@A 000000018002eee8     security_credentials.obj
 0003:00001f00       __dyn_tls_init_callback    000000018002ef00     <common>
 0003:00001f08       __scrt_ucrt_dll_is_in_use  000000018002ef08     <common>
 0003:00001f10       ?_OptionsStorage@?1??__local_stdio_printf_options@@9@9 000000018002ef10     <common>

 entry point at        0001:000064c4

 Static symbols

 0000:fffcd000       .debug$S                   0000000180000000     kernel32:KERNEL32.dll
 0000:fffcd000       .debug$S                   0000000180000000     kernel32:KERNEL32.dll
 0000:fffcd000       .debug$S                   0000000180000000     kernel32:KERNEL32.dll
 0000:fffcd000       .debug$S                   0000000180000000     kernel32:KERNEL32.dll
 0000:fffcd000       .debug$S                   0000000180000000     kernel32:KERNEL32.dll
 0000:fffcd000       .debug$S                   0000000180000000     kernel32:KERNEL32.dll
 0000:fffcd000       .debug$S                   0000000180000000     kernel32:KERNEL32.dll
 0000:fffcd000       .debug$S                   0000000180000000     kernel32:KERNEL32.dll
 0000:fffcd000       .debug$S                   0000000180000000     node:node.exe
 0000:fffcd000       .debug$S                   0000000180000000     kernel32:KERNEL32.dll
 0000:fffcd000       .debug$S                   0000000180000000     kernel32:KERNEL32.dll
 0000:fffcd000       .debug$S                   0000000180000000     kernel32:KERNEL32.dll
 0000:fffcd000       .debug$S                   0000000180000000     node:node.exe
 0000:fffcd000       .debug$S                   0000000180000000     kernel32:KERNEL32.dll
 0000:fffcd000       .debug$S                   0000000180000000     node:node.exe
 0000:fffcd000       .debug$S                   0000000180000000     kernel32:KERNEL32.dll
 0000:fffcd000       .debug$S                   0000000180000000     node:node.exe
 0000:fffcd000       .debug$S                   0000000180000000     kernel32:KERNEL32.dll
 0000:fffcd000       .debug$S                   0000000180000000     node:node.exe
 0000:fffcd000       .debug$S                   0000000180000000     kernel32:KERNEL32.dll
 0000:fffcd000       .debug$S                   0000000180000000     node:node.exe
 0000:fffcd000       .debug$S                   0000000180000000     kernel32:KERNEL32.dll
 0000:fffcd000       .debug$S                   0000000180000000     node:node.exe
 0000:fffcd000       .debug$S                   0000000180000000     kernel32:KERNEL32.dll
 0000:fffcd000       .debug$S                   0000000180000000     node:node.exe
 0000:fffcd000       .debug$S                   0000000180000000     kernel32:KERNEL32.dll
 0000:fffcd000       .debug$S                   0000000180000000     node:node.exe
 0000:fffcd000       .debug$S                   0000000180000000     kernel32:KERNEL32.dll
 0000:fffcd000       .debug$S                   0000000180000000     node:node.exe
 0000:fffcd000       .debug$S                   0000000180000000     kernel32:KERNEL32.dll
 0000:fffcd000       .debug$S                   0000000180000000     node:node.exe
 0000:fffcd000       .debug$S                   0000000180000000     kerberos.exp
 0000:fffcd000       .debug$S                   0000000180000000     node:node.exe
 0000:fffcd000       .debug$S                   0000000180000000     kernel32:KERNEL32.dll
 0000:fffcd000       .debug$S                   0000000180000000     kernel32:KERNEL32.dll
 0000:fffcd000       .debug$S                   0000000180000000     kernel32:KERNEL32.dll
 0000:fffcd000       .debug$S                   0000000180000000     kernel32:KERNEL32.dll
 0000:fffcd000       .debug$S                   0000000180000000     kernel32:KERNEL32.dll
 0000:fffcd000       .debug$S                   0000000180000000     node:node.exe
 0000:fffcd000       .debug$S                   0000000180000000     kernel32:KERNEL32.dll
 0000:fffcd000       .debug$S                   0000000180000000     node:node.exe
 0000:fffcd000       .debug$S                   0000000180000000     kernel32:KERNEL32.dll
 0000:fffcd000       .debug$S                   0000000180000000     node:node.exe
 0000:fffcd000       .debug$S                   0000000180000000     kernel32:KERNEL32.dll
 0000:fffcd000       .debug$S                   0000000180000000     node:node.exe
 0000:fffcd000       .debug$S                   0000000180000000     node:node.exe
 0000:fffcd000       .debug$S                   0000000180000000     node:node.exe
 0000:fffcd000       .debug$S                   0000000180000000     kernel32:KERNEL32.dll
 0000:fffcd000       .debug$S                   0000000180000000     node:node.exe
 0000:fffcd000       .debug$S                   0000000180000000     kernel32:KERNEL32.dll
 0000:fffcd000       .debug$S                   0000000180000000     node:node.exe
 0000:fffcd000       .debug$S                   0000000180000000     kernel32:KERNEL32.dll
 0000:fffcd000       .debug$S                   0000000180000000     node:node.exe
 0000:fffcd000       .debug$S                   0000000180000000     kernel32:KERNEL32.dll
 0000:fffcd000       .debug$S                   0000000180000000     node:node.exe
 0000:fffcd000       .debug$S                   0000000180000000     kernel32:KERNEL32.dll
 0000:fffcd000       .debug$S                   0000000180000000     node:node.exe
 0000:fffcd000       .debug$S                   0000000180000000     kernel32:KERNEL32.dll
 0000:fffcd000       .debug$S                   0000000180000000     node:node.exe
 0000:fffcd000       .debug$S                   0000000180000000     kernel32:KERNEL32.dll
 0000:fffcd000       .debug$S                   0000000180000000     node:node.exe
 0000:fffcd000       .debug$S                   0000000180000000     kernel32:KERNEL32.dll
 0000:fffcd000       .debug$S                   0000000180000000     node:node.exe
 0000:fffcd000       .debug$S                   0000000180000000     kernel32:KERNEL32.dll
 0000:fffcd000       .debug$S                   0000000180000000     node:node.exe
 0000:fffcd000       .debug$S                   0000000180000000     kernel32:KERNEL32.dll
 0000:fffcd000       .debug$S                   0000000180000000     node:node.exe
 0000:fffcd000       .debug$S                   0000000180000000     kernel32:KERNEL32.dll
 0000:fffcd000       .debug$S                   0000000180000000     node:node.exe
 0000:fffcd000       .debug$S                   0000000180000000     kernel32:KERNEL32.dll
 0000:fffcd000       .debug$S                   0000000180000000     node:node.exe
 0000:fffcd000       .debug$S                   0000000180000000     kernel32:KERNEL32.dll
 0000:fffcd000       .debug$S                   0000000180000000     node:node.exe
 0000:fffcd000       .debug$S                   0000000180000000     kernel32:KERNEL32.dll
 0000:fffcd000       .debug$S                   0000000180000000     node:node.exe
 0000:fffcd000       .debug$S                   0000000180000000     kernel32:KERNEL32.dll
 0000:fffcd000       .debug$S                   0000000180000000     node:node.exe
 0000:fffcd000       .debug$S                   0000000180000000     kernel32:KERNEL32.dll
 0000:fffcd000       .debug$S                   0000000180000000     node:node.exe
 0000:fffcd000       .debug$S                   0000000180000000     kernel32:KERNEL32.dll
 0000:fffcd000       .debug$S                   0000000180000000     node:node.exe
 0000:fffcd000       .debug$S                   0000000180000000     kernel32:KERNEL32.dll
 0000:fffcd000       .debug$S                   0000000180000000     node:node.exe
 0000:fffcd000       .debug$S                   0000000180000000     kernel32:KERNEL32.dll
 0000:fffcd000       .debug$S                   0000000180000000     node:node.exe
 0000:fffcd000       .debug$S                   0000000180000000     kernel32:KERNEL32.dll
 0000:fffcd000       .debug$S                   0000000180000000     node:node.exe
 0000:fffcd000       .debug$S                   0000000180000000     kernel32:KERNEL32.dll
 0000:fffcd000       .debug$S                   0000000180000000     node:node.exe
 0000:fffcd000       .debug$S                   0000000180000000     kernel32:KERNEL32.dll
 0000:fffcd000       .debug$S                   0000000180000000     node:node.exe
 0000:fffcd000       .debug$S                   0000000180000000     kernel32:KERNEL32.dll
 0000:fffcd000       .debug$S                   0000000180000000     node:node.exe
 0000:fffcd000       .debug$S                   0000000180000000     kernel32:KERNEL32.dll
 0000:fffcd000       .debug$S                   0000000180000000     node:node.exe
 0000:fffcd000       .debug$S                   0000000180000000     kernel32:KERNEL32.dll
 0000:fffcd000       .debug$S                   0000000180000000     node:node.exe
 0000:fffcd000       .debug$S                   0000000180000000     kernel32:KERNEL32.dll
 0000:fffcd000       .debug$S                   0000000180000000     node:node.exe
 0000:fffcd000       .debug$S                   0000000180000000     kernel32:KERNEL32.dll
 0000:fffcd000       .debug$S                   0000000180000000     node:node.exe
 0000:fffcd000       .debug$S                   0000000180000000     kernel32:KERNEL32.dll
 0000:fffcd000       .debug$S                   0000000180000000     node:node.exe
 0000:fffcd000       .debug$S                   0000000180000000     kernel32:KERNEL32.dll
 0000:fffcd000       .debug$S                   0000000180000000     node:node.exe
 0000:fffcd000       .debug$S                   0000000180000000     kernel32:KERNEL32.dll
 0000:fffcd000       .debug$S                   0000000180000000     node:node.exe
 0000:fffcd000       .debug$S                   0000000180000000     kernel32:KERNEL32.dll
 0000:fffcd000       .debug$S                   0000000180000000     node:node.exe
 0000:fffcd000       .debug$S                   0000000180000000     kernel32:KERNEL32.dll
 0000:fffcd000       .debug$S                   0000000180000000     node:node.exe
 0000:fffcd000       .debug$S                   0000000180000000     kernel32:KERNEL32.dll
 0000:fffcd000       .debug$S                   0000000180000000     node:node.exe
 0000:fffcd000       .debug$S                   0000000180000000     kernel32:KERNEL32.dll
 0000:fffcd000       .debug$S                   0000000180000000     node:node.exe
 0000:fffcd000       .debug$S                   0000000180000000     kernel32:KERNEL32.dll
 0000:fffcd000       .debug$S                   0000000180000000     node:node.exe
 0000:fffcd000       .debug$S                   0000000180000000     kernel32:KERNEL32.dll
 0000:fffcd000       .debug$S                   0000000180000000     node:node.exe
 0000:fffcd000       .debug$S                   0000000180000000     kernel32:KERNEL32.dll
 0000:fffcd000       .debug$S                   0000000180000000     node:node.exe
 0000:fffcd000       .debug$S                   0000000180000000     kernel32:KERNEL32.dll
 0000:fffcd000       .debug$S                   0000000180000000     node:node.exe
 0000:fffcd000       .debug$S                   0000000180000000     kernel32:KERNEL32.dll
 0000:fffcd000       .debug$S                   0000000180000000     node:node.exe
 0000:fffcd000       .debug$S                   0000000180000000     kernel32:KERNEL32.dll
 0000:fffcd000       .debug$S                   0000000180000000     node:node.exe
 0000:fffcd000       .debug$S                   0000000180000000     kernel32:KERNEL32.dll
 0000:fffcd000       .debug$S                   0000000180000000     node:node.exe
 0000:fffcd000       .debug$S                   0000000180000000     kernel32:KERNEL32.dll
 0000:fffcd000       .debug$S                   0000000180000000     node:node.exe
 0000:fffcd000       .debug$S                   0000000180000000     kernel32:KERNEL32.dll
 0000:fffcd000       .debug$S                   0000000180000000     node:node.exe
 0000:fffcd000       .debug$S                   0000000180000000     kernel32:KERNEL32.dll
 0000:fffcd000       .debug$S                   0000000180000000     node:node.exe
 0000:fffcd000       .debug$S                   0000000180000000     kernel32:KERNEL32.dll
 0000:fffcd000       .debug$S                   0000000180000000     node:node.exe
 0000:fffcd000       .debug$S                   0000000180000000     kernel32:KERNEL32.dll
 0000:fffcd000       .debug$S                   0000000180000000     node:node.exe
 0000:fffcd000       .debug$S                   0000000180000000     kernel32:KERNEL32.dll
 0000:fffcd000       .debug$S                   0000000180000000     node:node.exe
 0000:fffcd000       .debug$S                   0000000180000000     kernel32:KERNEL32.dll
 0000:fffcd000       .debug$S                   0000000180000000     node:node.exe
 0000:fffcd000       .debug$S                   0000000180000000     kernel32:KERNEL32.dll
 0000:fffcd000       .debug$S                   0000000180000000     node:node.exe
 0000:fffcd000       .debug$S                   0000000180000000     kernel32:KERNEL32.dll
 0000:fffcd000       .debug$S                   0000000180000000     node:node.exe
 0000:fffcd000       .debug$S                   0000000180000000     kernel32:KERNEL32.dll
 0000:fffcd000       .debug$S                   0000000180000000     kernel32:KERNEL32.dll
 0000:fffcd000       .debug$S                   0000000180000000     kernel32:KERNEL32.dll
 0000:fffcd000       .debug$S                   0000000180000000     kernel32:KERNEL32.dll
 0000:fffcd000       .debug$S                   0000000180000000     node:node.exe
 0000:fffcd000       .debug$S                   0000000180000000     node:node.exe
 0000:fffcd000       .debug$S                   0000000180000000     kernel32:KERNEL32.dll
 0000:fffcd000       .debug$S                   0000000180000000     node:node.exe
 0000:fffcd000       .debug$S                   0000000180000000     node:node.exe
 0000:fffcd000       .debug$S                   0000000180000000     node:node.exe
 0000:fffcd000       .debug$S                   0000000180000000     node:node.exe
 0000:fffcd000       .debug$S                   0000000180000000     kernel32:KERNEL32.dll
 0000:fffcd000       .debug$S                   0000000180000000     node:node.exe
 0000:fffcd000       .debug$S                   0000000180000000     node:node.exe
 0000:fffcd000       .debug$S                   0000000180000000     kernel32:KERNEL32.dll
 0000:fffcd000       .debug$S                   0000000180000000     node:node.exe
 0000:fffcd000       .debug$S                   0000000180000000     node:node.exe
 0000:fffcd000       .debug$S                   0000000180000000     node:node.exe
 0000:fffcd000       .debug$S                   0000000180000000     kernel32:KERNEL32.dll
 0000:fffcd000       .debug$S                   0000000180000000     node:node.exe
 0000:fffcd000       .debug$S                   0000000180000000     node:node.exe
 0000:fffcd000       .debug$S                   0000000180000000     node:node.exe
 0000:fffcd000       .debug$S                   0000000180000000     node:node.exe
 0000:fffcd000       .debug$S                   0000000180000000     node:node.exe
 0000:fffcd000       .debug$S                   0000000180000000     node:node.exe
 0000:fffcd000       .debug$S                   0000000180000000     node:node.exe
 0000:fffcd000       .debug$S                   0000000180000000     node:node.exe
 0000:fffcd000       .debug$S                   0000000180000000     node:node.exe
 0000:fffcd000       .debug$S                   0000000180000000     kernel32:KERNEL32.dll
 0000:fffcd000       .debug$S                   0000000180000000     node:node.exe
 0000:fffcd000       .debug$S                   0000000180000000     node:node.exe
 0000:fffcd000       .debug$S                   0000000180000000     node:node.exe
 0001:00000000       ??__E?constructor_template@Kerberos@@2V?$Persistent@VFunctionTemplate@v8@@V?$NonCopyablePersistentTraits@VFunctionTemplate@v8@@@2@@Nan@@A@@YAXXZ 0000000180001000 f   kerberos.obj
 0001:00000020       ??__E?constructor_template@SecurityBuffer@@2V?$Persistent@VFunctionTemplate@v8@@V?$NonCopyablePersistentTraits@VFunctionTemplate@v8@@@2@@Nan@@A@@YAXXZ 0000000180001020 f   security_buffer.obj
 0001:00000040       ??__E?constructor_template@SecurityBufferDescriptor@@2V?$Persistent@VFunctionTemplate@v8@@V?$NonCopyablePersistentTraits@VFunctionTemplate@v8@@@2@@Nan@@A@@YAXXZ 0000000180001040 f   security_buffer_descriptor.obj
 0001:00000060       ??__E?constructor_template@SecurityContext@@2V?$Persistent@VFunctionTemplate@v8@@V?$NonCopyablePersistentTraits@VFunctionTemplate@v8@@@2@@Nan@@A@@YAXXZ 0000000180001060 f   security_context.obj
 0001:00000080       ??__E?constructor_template@SecurityCredentials@@2V?$Persistent@VFunctionTemplate@v8@@V?$NonCopyablePersistentTraits@VFunctionTemplate@v8@@@2@@Nan@@A@@YAXXZ 0000000180001080 f   security_credentials.obj
 0001:000000a0       ?FunctionCallbackWrapper@imp@Nan@@YAXAEBV?$FunctionCallbackInfo@VValue@v8@@@v8@@@Z 00000001800010a0 f   kerberos.obj
 0001:00000ad0       _register_kerberos         0000000180001ad0 f   kerberos.obj
 0001:00002070       ?GetterCallbackWrapper@imp@Nan@@YAXV?$Local@VName@v8@@@v8@@AEBV?$PropertyCallbackInfo@VValue@v8@@@4@@Z 0000000180003070 f   security_context.obj
 0001:000025e0       ?Process@@YAXPEAUuv_work_s@@@Z 00000001800035e0 f   security_context.obj
 0001:000025f0       ?After@@YAXPEAUuv_work_s@@@Z 00000001800035f0 f   security_context.obj
 0001:00002a20       ?_initializeContext@@YAXPEAVWorker@@@Z 0000000180003a20 f   security_context.obj
 0001:00002d90       ?_map_encryptMessage@@YA?AV?$Local@VValue@v8@@@v8@@PEAVWorker@@@Z 0000000180003d90 f   security_context.obj
 0001:00002d90       ?_map_decryptMessage@@YA?AV?$Local@VValue@v8@@@v8@@PEAVWorker@@@Z 0000000180003d90 f   security_context.obj
 0001:00002d90       ?_map_initializeContextStep@@YA?AV?$Local@VValue@v8@@@v8@@PEAVWorker@@@Z 0000000180003d90 f   security_context.obj
 0001:00002d90       ?_map_initializeContext@@YA?AV?$Local@VValue@v8@@@v8@@PEAVWorker@@@Z 0000000180003d90 f   security_context.obj
 0001:00003360       ?_initializeContextStep@@YAXPEAVWorker@@@Z 0000000180004360 f   security_context.obj
 0001:000038e0       ?_encryptMessage@@YAXPEAVWorker@@@Z 00000001800048e0 f   security_context.obj
 0001:00003c20       ?_decryptMessage@@YAXPEAVWorker@@@Z 0000000180004c20 f   security_context.obj
 0001:00003f10       ?_queryContextAttributes@@YAXPEAVWorker@@@Z 0000000180004f10 f   security_context.obj
 0001:00003fd0       ?_map_queryContextAttributes@@YA?AV?$Local@VValue@v8@@@v8@@PEAVWorker@@@Z 0000000180004fd0 f   security_context.obj
 0001:00004880       ?DisplaySECError@@YAPEADK@Z 0000000180005880 f   security_context.obj
 0001:00004ab0       ?_authSSPIAquire@@YAXPEAVWorker@@@Z 0000000180005ab0 f   security_credentials.obj
 0001:00004de0       ?_map_authSSPIAquire@@YA?AV?$Local@VValue@v8@@@v8@@PEAVWorker@@@Z 0000000180005de0 f   security_credentials.obj
 0001:000058e0       ?load_exe_hook@@YAP6A_JXZIPEAUDelayLoadInfo@@@Z 00000001800068e0 f   win_delay_load_hook.obj
 0001:00005d30       $$000000                   0000000180006d30     LIBCMT:_amdsecgs_.obj
 0001:00006194       ?dllmain_crt_dispatch@@YAHQEAUHINSTANCE__@@KQEAX@Z 0000000180007194 f   LIBCMT:dll_dllmain.obj
 0001:000061e4       ?dllmain_crt_process_attach@@YAHQEAUHINSTANCE__@@QEAX@Z 00000001800071e4 f   LIBCMT:dll_dllmain.obj
 0001:00006300       ?dllmain_crt_process_detach@@YAH_N@Z 0000000180007300 f   LIBCMT:dll_dllmain.obj
 0001:00006390       ?dllmain_dispatch@@YAHQEAUHINSTANCE__@@KQEAX@Z 0000000180007390 f   LIBCMT:dll_dllmain.obj
 0001:000066bc       capture_current_context    00000001800076bc f   LIBCMT:gs_report.obj
 0001:0000672c       capture_previous_context   000000018000772c f   LIBCMT:gs_report.obj
 0001:00007220       $$000000                   0000000180008220     libvcruntime:memset.obj
 0001:0000731c       MsetTab                    000000018000831c     libvcruntime:memset.obj
 0001:00007684       ?try_get_function@@YAPEAXW4function_id@?A0xcc2f1bd3@@QEBDQEBW4module_id@2@2@Z 0000000180008684 f   libvcruntime:winapi_downlevel.obj
 0001:00007a70       $$000000                   0000000180008a70     libvcruntime:_notify_.obj
 0001:00008200       $$000000                   0000000180009200     libvcruntime:memcpy.obj
 0001:000082b7       MoveSmall                  00000001800092b7     libvcruntime:memcpy.obj
 0001:00008774       ??$BuildCatchObjectHelperInternal@$$CBU_s_HandlerType@@@@YAHPEAUEHExceptionRecord@@PEAXPEBU_s_HandlerType@@PEBU_s_CatchableType@@@Z 0000000180009774 f   libvcruntime:frame.obj
 0001:00008974       ??$BuildCatchObjectInternal@$$CBU_s_HandlerType@@@@YAXPEAUEHExceptionRecord@@PEAXPEBU_s_HandlerType@@PEBU_s_CatchableType@@@Z 0000000180009974 f   libvcruntime:frame.obj
 0001:00008a34       ??$CatchIt@V__FrameHandler3@@@@YAXPEAUEHExceptionRecord@@PEA_KPEAU_CONTEXT@@PEAU_xDISPATCHER_CONTEXT@@PEBU_s_FuncInfo@@PEBU_s_HandlerType@@PEBU_s_CatchableType@@PEBU_s_TryBlockMapEntry@@H1EE@Z 0000000180009a34 f   libvcruntime:frame.obj
 0001:00008b04       ??$FindHandler@V__FrameHandler3@@@@YAXPEAUEHExceptionRecord@@PEA_KPEAU_CONTEXT@@PEAU_xDISPATCHER_CONTEXT@@PEBU_s_FuncInfo@@EH1@Z 0000000180009b04 f   libvcruntime:frame.obj
 0001:00008f68       ??$FindHandlerForForeignException@V__FrameHandler3@@@@YAXPEAUEHExceptionRecord@@PEA_KPEAU_CONTEXT@@PEAU_xDISPATCHER_CONTEXT@@PEBU_s_FuncInfo@@HH1@Z 0000000180009f68 f   libvcruntime:frame.obj
 0001:00009770       ?ExFilterRethrow@@YAHPEAU_EXCEPTION_POINTERS@@PEAUEHExceptionRecord@@PEAH@Z 000000018000a770 f   libvcruntime:frame.obj
 0001:00009a24       ?IsInExceptionSpec@@YAEPEAUEHExceptionRecord@@PEBU_s_ESTypeList@@@Z 000000018000aa24 f   libvcruntime:frame.obj
 0001:00009afc       ?Is_bad_exception_allowed@@YAEPEBU_s_ESTypeList@@@Z 000000018000aafc f   libvcruntime:frame.obj
 0001:00009bb0       $$000000                   000000018000abb0     libvcruntime:handlers.obj
 0001:00009c58       ??$common_assert_to_message_box@_W@@YAXQEB_W0IQEAX@Z 000000018000ac58 f   libucrt:assert.obj
 0001:00009d1c       ??$common_assert_to_message_box_build_string@_W@@YAXQEA_W_KQEB_W2IQEAX@Z 000000018000ad1c f   libucrt:assert.obj
 0001:0000a4e0       ??$common_assert_to_stderr@_W@@YAXQEB_W0I@Z 000000018000b4e0 f   libucrt:assert.obj
 0001:0000a650       ?get_assert_format@@YAPEB_W_W@Z 000000018000b650 f   libucrt:assert.obj
 0001:0000a924       ??$?RV<lambda_0d412022a4b28cc8a401ea49574e8ae6>@@AEAV<lambda_a775ed57af18ba8e4d5dc780aa9068fe>@@V<lambda_975a71a6baa488a08f4e15f6b0339b9e>@@@?$__crt_seh_guarded_call@H@@QEAAH$$QEAV<lambda_0d412022a4b28cc8a401ea49574e8ae6>@@AEAV<lambda_a775ed57af18ba8e4d5dc780aa9068fe>@@$$QEAV<lambda_975a71a6baa488a08f4e15f6b0339b9e>@@@Z 000000018000b924 f   libucrt:output.obj
 0001:0000a964       ??$?RV<lambda_a62c933ada0517137acf5807a1eeac1f>@@AEAV<lambda_a31071773b9a94e445cbd5d04ef99106>@@V<lambda_56065050dbf3ada7e59a83db45153de3>@@@?$__crt_seh_guarded_call@H@@QEAAH$$QEAV<lambda_a62c933ada0517137acf5807a1eeac1f>@@AEAV<lambda_a31071773b9a94e445cbd5d04ef99106>@@$$QEAV<lambda_56065050dbf3ada7e59a83db45153de3>@@@Z 000000018000b964 f   libucrt:output.obj
 0001:0000a9a4       ??$common_vsprintf@Vstandard_base@__crt_stdio_output@@_W@@YAH_KQEA_W0QEB_WQEAU__crt_locale_pointers@@QEAD@Z 000000018000b9a4 f   libucrt:output.obj
 0001:0000b1c0       ??R<lambda_a31071773b9a94e445cbd5d04ef99106>@@QEBAHXZ 000000018000c1c0 f   libucrt:output.obj
 0001:0000b2f0       ??R<lambda_a775ed57af18ba8e4d5dc780aa9068fe>@@QEBAHXZ 000000018000c2f0 f   libucrt:output.obj
 0001:0000e210       ??$?RV<lambda_d80eeec6fff315bfe5c115232f3240e3>@@AEAV<lambda_6e4b09c48022b2350581041d5f6b0c4c>@@V<lambda_2358e3775559c9db80273638284d5e45>@@@?$__crt_seh_guarded_call@X@@QEAAX$$QEAV<lambda_d80eeec6fff315bfe5c115232f3240e3>@@AEAV<lambda_6e4b09c48022b2350581041d5f6b0c4c>@@$$QEAV<lambda_2358e3775559c9db80273638284d5e45>@@@Z 000000018000f210 f   libucrt:exit.obj
 0001:0000e248       ??R<lambda_6e4b09c48022b2350581041d5f6b0c4c>@@QEBA@XZ 000000018000f248 f   libucrt:exit.obj
 0001:0000e320       ?atexit_exception_filter@@YAHK@Z 000000018000f320 f   libucrt:exit.obj
 0001:0000e32c       ?common_exit@@YAXHW4_crt_exit_cleanup_mode@@W4_crt_exit_return_mode@@@Z 000000018000f32c f   libucrt:exit.obj
 0001:0000e3e8       ?exit_or_terminate_process@@YAXI@Z 000000018000f3e8 f   libucrt:exit.obj
 0001:0000e434       ?try_cor_exit_process@@YAXI@Z 000000018000f434 f   libucrt:exit.obj
 0001:0000e4bc       ??$parse_command_line@D@@YAXPEADPEAPEAD0PEA_K2@Z 000000018000f4bc f   libucrt:argv_parsing.obj
 0001:0000e868       ??$common_initialize_environment_nolock@D@@YAHXZ 000000018000f868 f   libucrt:environment_initialization.obj
 0001:0000e8d4       ??$create_environment@D@@YAQEAPEADQEAD@Z 000000018000f8d4 f   libucrt:environment_initialization.obj
 0001:0000e9dc       ??$free_environment@D@@YAXQEAPEAD@Z 000000018000f9dc f   libucrt:environment_initialization.obj
 0001:0000e9dc       ??$free_environment@_W@@YAXQEAPEA_W@Z 000000018000f9dc f   libucrt:environment_initialization.obj
 0001:0000ea20       ??$uninitialize_environment_internal@D@@YAXAEAPEAPEAD@Z 000000018000fa20 f   libucrt:environment_initialization.obj
 0001:0000ea3c       ??$uninitialize_environment_internal@_W@@YAXAEAPEAPEA_W@Z 000000018000fa3c f   libucrt:environment_initialization.obj
 0001:0000ea98       ??$?RV<lambda_7777bce6b2f8c936911f934f8298dc43>@@AEAV<lambda_f03950bc5685219e0bcd2087efbe011e>@@V<lambda_3883c3dff614d5e0c5f61bb1ac94921c>@@@?$__crt_seh_guarded_call@H@@QEAAH$$QEAV<lambda_7777bce6b2f8c936911f934f8298dc43>@@AEAV<lambda_f03950bc5685219e0bcd2087efbe011e>@@$$QEAV<lambda_3883c3dff614d5e0c5f61bb1ac94921c>@@@Z 000000018000fa98 f   libucrt:onexit.obj
 0001:0000ead4       ??$?RV<lambda_8369fcb7c4df1e85de37618bd2b85f07>@@AEAV<lambda_a10e4b102d4a2c3aac6f4f48bbdf488f>@@V<lambda_5b7707bd6d7a0c4713179f36c7fd995d>@@@?$__crt_seh_guarded_call@H@@QEAAH$$QEAV<lambda_8369fcb7c4df1e85de37618bd2b85f07>@@AEAV<lambda_a10e4b102d4a2c3aac6f4f48bbdf488f>@@$$QEAV<lambda_5b7707bd6d7a0c4713179f36c7fd995d>@@@Z 000000018000fad4 f   libucrt:onexit.obj
 0001:0000eb10       ??R<lambda_a10e4b102d4a2c3aac6f4f48bbdf488f>@@QEBAHXZ 000000018000fb10 f   libucrt:onexit.obj
 0001:0000ecd4       ??R<lambda_f03950bc5685219e0bcd2087efbe011e>@@QEBAHXZ 000000018000fcd4 f   libucrt:onexit.obj
 0001:0000eef4       initialize_global_variables 000000018000fef4 f   libucrt:initialization.obj
 0001:0000ef08       initialize_c               000000018000ff08 f   libucrt:initialization.obj
 0001:0000ef2c       uninitialize_global_state_isolation 000000018000ff2c f   libucrt:initialization.obj
 0001:0000ef2c       uninitialize_c             000000018000ff2c f   libucrt:initialization.obj
 0001:0000ef2c       initialize_global_state_isolation 000000018000ff2c f   libucrt:initialization.obj
 0001:0000ef2c       initialize_environment     000000018000ff2c f   libucrt:initialization.obj
 0001:0000ef2c       report_memory_leaks        000000018000ff2c f   libucrt:initialization.obj
 0001:0000ef30       uninitialize_environment   000000018000ff30 f   libucrt:initialization.obj
 0001:0000ef40       initialize_pointers        000000018000ff40 f   libucrt:initialization.obj
 0001:0000ef94       uninitialize_vcruntime     000000018000ff94 f   libucrt:initialization.obj
 0001:0000ef9c       uninitialize_allocated_memory 000000018000ff9c f   libucrt:initialization.obj
 0001:0000efdc       uninitialize_allocated_io_buffers 000000018000ffdc f   libucrt:initialization.obj
 0001:0000fc60       $$000000                   0000000180010c60     libucrt:strncmp.obj
 0001:0001004c       ??$common_xtox@K_W@@YAHKQEA_W_KI_N@Z 000000018001104c f   libucrt:xtoa.obj
 0001:00010110       ??$common_xtox_s@K_W@@YAHKQEA_W_KI_N@Z 0000000180011110 f   libucrt:xtoa.obj
 0001:00010514       ??$?RV<lambda_842d9ff0dc9ef11c61343bbaebe7f885>@@AEAV<lambda_c5860995281e5c4ce005b3de8f5874ee>@@V<lambda_d90129c13df834fdcbf8d2b88dafcf2d>@@@?$__crt_seh_guarded_call@X@@QEAAX$$QEAV<lambda_842d9ff0dc9ef11c61343bbaebe7f885>@@AEAV<lambda_c5860995281e5c4ce005b3de8f5874ee>@@$$QEAV<lambda_d90129c13df834fdcbf8d2b88dafcf2d>@@@Z 0000000180011514 f   libucrt:fflush.obj
 0001:000105b0       ??$?RV<lambda_886d6c58226a84441f68b9f2b8217b83>@@AEAV<lambda_ab61a845afdef5b7c387490eaf3616ee>@@V<lambda_f7f22ab5edc0698d5f6905b0d3f44752>@@@?$__crt_seh_guarded_call@X@@QEAAX$$QEAV<lambda_886d6c58226a84441f68b9f2b8217b83>@@AEAV<lambda_ab61a845afdef5b7c387490eaf3616ee>@@$$QEAV<lambda_f7f22ab5edc0698d5f6905b0d3f44752>@@@Z 00000001800115b0 f   libucrt:fflush.obj
 0001:00010690       ??$?RV<lambda_c376a267cfb53b6959b3b692ec76b120>@@AEAV<lambda_9a32fed5bf61b6b509b2d3f6003082a1>@@V<lambda_572fbb9fa0ab338edf41edfd4b5fcc8d>@@@?$__crt_seh_guarded_call@H@@QEAAH$$QEAV<lambda_c376a267cfb53b6959b3b692ec76b120>@@AEAV<lambda_9a32fed5bf61b6b509b2d3f6003082a1>@@$$QEAV<lambda_572fbb9fa0ab338edf41edfd4b5fcc8d>@@@Z 0000000180011690 f   libucrt:fflush.obj
 0001:000106d0       ?common_flush_all@@YAH_N@Z 00000001800116d0 f   libucrt:fflush.obj
 0001:00010868       ??$?RV<lambda_84ec643ea9557e2f7dc01bb0e9624395>@@AEAV<lambda_ca71763b3c0644891230e4f79ea54fa6>@@V<lambda_439a761618c59b0600e24586724d733b>@@@?$__crt_seh_guarded_call@H@@QEAAH$$QEAV<lambda_84ec643ea9557e2f7dc01bb0e9624395>@@AEAV<lambda_ca71763b3c0644891230e4f79ea54fa6>@@$$QEAV<lambda_439a761618c59b0600e24586724d733b>@@@Z 0000000180011868 f   libucrt:setvbuf.obj
 0001:000108a8       ??R<lambda_ca71763b3c0644891230e4f79ea54fa6>@@QEBAHXZ 00000001800118a8 f   libucrt:setvbuf.obj
 0001:00010a34       ??$?RV<lambda_450d765d439847d4c735a33c368b5fc0>@@AEAV<lambda_44731a7d0e6d81c3e6aa82d741081786>@@V<lambda_601a2a7da3b7a96e9554ac7215c4b07c>@@@?$__crt_seh_guarded_call@P6AXH@Z@@QEAAP6AXH@Z$$QEAV<lambda_450d765d439847d4c735a33c368b5fc0>@@AEAV<lambda_44731a7d0e6d81c3e6aa82d741081786>@@$$QEAV<lambda_601a2a7da3b7a96e9554ac7215c4b07c>@@@Z 0000000180011a34 f   libucrt:signal.obj
 0001:00010e64       ?try_get_function@@YAPEAXW4function_id@?A0x391cf84c@@QEBDQEBW4module_id@2@2@Z 0000000180011e64 f   libucrt:winapi_thunks.obj
 0001:00011790       ?initialize_inherited_file_handles_nolock@@YAXXZ 0000000180012790 f   libucrt:ioinit.obj
 0001:0001187c       ?initialize_stdio_handles_nolock@@YAXXZ 000000018001287c f   libucrt:ioinit.obj
 0001:00011a6c       ?internal_isupper_l@@YA_NHQEAU__crt_locale_pointers@@@Z 0000000180012a6c f   libucrt:tolower_toupper.obj
 0001:000122c4       ??$?RV<lambda_0ae27a3a962d80f24befdcbee591983d>@@AEAV<lambda_8d0ee55de4b1038c4002e0adecdf1839>@@V<lambda_dc504788e8f1664fe9b84e20bfb512f2>@@@?$__crt_seh_guarded_call@X@@QEAAX$$QEAV<lambda_0ae27a3a962d80f24befdcbee591983d>@@AEAV<lambda_8d0ee55de4b1038c4002e0adecdf1839>@@$$QEAV<lambda_dc504788e8f1664fe9b84e20bfb512f2>@@@Z 00000001800132c4 f   libucrt:per_thread_data.obj
 0001:00012304       ??$?RV<lambda_2d41944a1d46af3157314b8a01080d33>@@AEAV<lambda_8f455de75cd7d7f24b4096f044d8b9e6>@@V<lambda_aa500f224e6afead328df44964fe2772>@@@?$__crt_seh_guarded_call@X@@QEAAX$$QEAV<lambda_2d41944a1d46af3157314b8a01080d33>@@AEAV<lambda_8f455de75cd7d7f24b4096f044d8b9e6>@@$$QEAV<lambda_aa500f224e6afead328df44964fe2772>@@@Z 0000000180013304 f   libucrt:per_thread_data.obj
 0001:00012344       ??$?RV<lambda_aa87e3671a710a21b5dc78c0bdf72e11>@@AEAV<lambda_92619d2358a28f41a33ba319515a20b9>@@V<lambda_6992ecaafeb10aed2b74cb1fae11a551>@@@?$__crt_seh_guarded_call@X@@QEAAX$$QEAV<lambda_aa87e3671a710a21b5dc78c0bdf72e11>@@AEAV<lambda_92619d2358a28f41a33ba319515a20b9>@@$$QEAV<lambda_6992ecaafeb10aed2b74cb1fae11a551>@@@Z 0000000180013344 f   libucrt:per_thread_data.obj
 0001:0001238c       ??$?RV<lambda_f2e299630e499de9f9a165e60fcd3db5>@@AEAV<lambda_2ae9d31cdba2644fcbeaf08da7c24588>@@V<lambda_40d01ff24d0e7b3814fdbdcee8eab3c7>@@@?$__crt_seh_guarded_call@X@@QEAAX$$QEAV<lambda_f2e299630e499de9f9a165e60fcd3db5>@@AEAV<lambda_2ae9d31cdba2644fcbeaf08da7c24588>@@$$QEAV<lambda_40d01ff24d0e7b3814fdbdcee8eab3c7>@@@Z 000000018001338c f   libucrt:per_thread_data.obj
 0001:000123ec       ?construct_ptd_array@@YAXQEAU__acrt_ptd@@@Z 00000001800133ec f   libucrt:per_thread_data.obj
 0001:000124bc       ?destroy_fls@@YAXPEAX@Z    00000001800134bc f   libucrt:per_thread_data.obj
 0001:000124dc       ?destroy_ptd_array@@YAXQEAU__acrt_ptd@@@Z 00000001800134dc f   libucrt:per_thread_data.obj
 0001:000125d4       ?replace_current_thread_locale_nolock@@YAXQEAU__acrt_ptd@@QEAU__crt_locale_data@@@Z 00000001800135d4 f   libucrt:per_thread_data.obj
 0001:0001296c       ?fp_format_a@@YAHQEBNPEAD_KQEAD2H_NIQEAU__crt_locale_pointers@@@Z 000000018001396c f   libucrt:cvt.obj
 0001:00012cd4       ?fp_format_e@@YAHQEBNQEAD_K12H_NIQEAU__crt_locale_pointers@@@Z 0000000180013cd4 f   libucrt:cvt.obj
 0001:00012db0       ?fp_format_e_internal@@YAHQEAD_KH_NIQEAU_strflt@@2QEAU__crt_locale_pointers@@@Z 0000000180013db0 f   libucrt:cvt.obj
 0001:00012f84       ?fp_format_f_internal@@YAHQEAD_KHQEAU_strflt@@_NQEAU__crt_locale_pointers@@@Z 0000000180013f84 f   libucrt:cvt.obj
 0001:000130c8       ?fp_format_g@@YAHQEBNQEAD_K12H_NIQEAU__crt_locale_pointers@@@Z 00000001800140c8 f   libucrt:cvt.obj
 0001:000131fc       ?fp_format_nan_or_infinity@@YAHW4__acrt_fp_class@@_NPEAD_K1@Z 00000001800141fc f   libucrt:cvt.obj
 0001:000138a0       ??$?RV<lambda_410d79af7f07d98d83a3f525b3859a53>@@AEAV<lambda_3e16ef9562a7dcce91392c22ab16ea36>@@V<lambda_38119f0e861e05405d8a144b9b982f0a>@@@?$__crt_seh_guarded_call@X@@QEAAX$$QEAV<lambda_410d79af7f07d98d83a3f525b3859a53>@@AEAV<lambda_3e16ef9562a7dcce91392c22ab16ea36>@@$$QEAV<lambda_38119f0e861e05405d8a144b9b982f0a>@@@Z 00000001800148a0 f   libucrt:wsetlocale.obj
 0001:00013b00       ?<lambda_invoker_cdecl>@<lambda_c2303d2482d7c3675ea2e24c4cfb6115>@@CAHPEBX0@Z 0000000180014b00 f   libucrt:argv_wildcards.obj
 0001:00013b14       ??$common_expand_argv_wildcards@D@@YAHQEAPEADQEAPEAPEAD@Z 0000000180014b14 f   libucrt:argv_wildcards.obj
 0001:00013d20       ??$copy_and_add_argument_to_buffer@D@@YAHQEBD0_KAEAV?$argument_list@D@?A0x5f5c8891@@@Z 0000000180014d20 f   libucrt:argv_wildcards.obj
 0001:00013ebc       ??$expand_argument_wildcards@D@@YAHQEAD0AEAV?$argument_list@D@?A0x5f5c8891@@@Z 0000000180014ebc f   libucrt:argv_wildcards.obj
 0001:00014070       ??$?RV<lambda_efdfa57d1f175319df784efa44bb7b81>@@AEAV<lambda_5f0a4c1567f8adc6734073e5d1e1b35c>@@V<lambda_2e8a7d3640ea6ccb4c2413664c2db6fd>@@@?$__crt_seh_guarded_call@X@@QEAAX$$QEAV<lambda_efdfa57d1f175319df784efa44bb7b81>@@AEAV<lambda_5f0a4c1567f8adc6734073e5d1e1b35c>@@$$QEAV<lambda_2e8a7d3640ea6ccb4c2413664c2db6fd>@@@Z 0000000180015070 f   libucrt:mbctype.obj
 0001:0001422c       ?getSystemCP@@YAHH@Z       000000018001522c f   libucrt:mbctype.obj
 0001:000142ac       ?setSBCS@@YAXPEAU__crt_multibyte_data@@@Z 00000001800152ac f   libucrt:mbctype.obj
 0001:0001433c       ?setSBUpLow@@YAXPEAU__crt_multibyte_data@@@Z 000000018001533c f   libucrt:mbctype.obj
 0001:00014520       ?setmbcp_internal@@YAHH_NQEAU__acrt_ptd@@QEAPEAU__crt_multibyte_data@@@Z 0000000180015520 f   libucrt:mbctype.obj
 0001:000146e4       ?update_thread_multibyte_data_internal@@YAPEAU__crt_multibyte_data@@QEAU__acrt_ptd@@QEAPEAU1@@Z 00000001800156e4 f   libucrt:mbctype.obj
 0001:00014ad0       ?x_ismbbtype_l@@YAHPEAU__crt_locale_pointers@@IHH@Z 0000000180015ad0 f   libucrt:ismbbyte.obj
 0001:0001510c       ?_mbstowcs_l_helper@@YA_KPEA_WPEBD_KPEAU__crt_locale_pointers@@@Z 000000018001610c f   libucrt:mbstowcs.obj
 0001:00015334       ??$?RV<lambda_a37b2b86f63e897a80ea819b0eb08c01>@@AEAV<lambda_38ce7e780aa69e748d6df282ebc68efe>@@V<lambda_99fb1378e971ab6e7edea83e3a7a83a2>@@@?$__crt_seh_guarded_call@H@@QEAAH$$QEAV<lambda_a37b2b86f63e897a80ea819b0eb08c01>@@AEAV<lambda_38ce7e780aa69e748d6df282ebc68efe>@@$$QEAV<lambda_99fb1378e971ab6e7edea83e3a7a83a2>@@@Z 0000000180016334 f   libucrt:commit.obj
 0001:00015454       ?write_double_translated_ansi_nolock@@YA?AUwrite_result@?A0x17268360@@HQEBDI@Z 0000000180016454 f   libucrt:write.obj
 0001:0001566c       ?write_text_ansi_nolock@@YA?AUwrite_result@?A0x17268360@@HQEBDI@Z 000000018001666c f   libucrt:write.obj
 0001:00015770       ?write_text_utf16le_nolock@@YA?AUwrite_result@?A0x17268360@@HQEBDI@Z 0000000180016770 f   libucrt:write.obj
 0001:0001588c       ?write_text_utf8_nolock@@YA?AUwrite_result@?A0x17268360@@HQEBDI@Z 000000018001688c f   libucrt:write.obj
 0001:00015dd0       ?GetTableIndexFromLocaleName@@YAHPEB_W@Z 0000000180016dd0 f   libucrt:lcidtoname_downlevel.obj
 0001:00016320       ?__acrt_LCMapStringA_stat@@YAHPEAU__crt_locale_pointers@@PEB_WKPEBDHPEADHHH@Z 0000000180017320 f   libucrt:lcmapstringa.obj
 0001:000184e8       memcpy_s                   00000001800194e8 f   libucrt:cfout.obj
 0001:00018570       ??$write_buffer_nolock@D@@YA_NDV__crt_stdio_stream@@@Z 0000000180019570 f   libucrt:_flsbuf.obj
 0001:00018650       ??$write_buffer_nolock@_W@@YA_N_WV__crt_stdio_stream@@@Z 0000000180019650 f   libucrt:_flsbuf.obj
 0001:00018ae0       ?free_crt_array_internal@@YAXQEAPEBX_K@Z 0000000180019ae0 f   libucrt:inittime.obj
 0001:00019268       fallbackMethod             000000018001a268 f   libucrt:strpbrk.obj
 0001:00019634       $LN78                      000000018001a634     libucrt:strpbrk.obj
 0001:00019670       $LN77                      000000018001a670     libucrt:strpbrk.obj
 0001:000196b0       $LN76                      000000018001a6b0     libucrt:strpbrk.obj
 0001:00019b38       ?initialize_multibyte@@YAHXZ 000000018001ab38 f   libucrt:multibyte_initializer.obj
 0001:00019c18       ??$common_lseek@_J@@YA_JH_JH@Z 000000018001ac18 f   libucrt:lseek.obj
 0001:00019d08       ??$common_lseek_nolock@_J@@YA_JH_JH@Z 000000018001ad08 f   libucrt:lseek.obj
 0001:00019df0       ??$?RV<lambda_751a882b2c74d4b022dec766aa51a29a>@@AEAV<lambda_628dfdc04ba53c8bfc02c9951375f3f5>@@V<lambda_f6c7be5f7998530c34de24c7437d6b54>@@@?$__crt_seh_guarded_call@H@@QEAAH$$QEAV<lambda_751a882b2c74d4b022dec766aa51a29a>@@AEAV<lambda_628dfdc04ba53c8bfc02c9951375f3f5>@@$$QEAV<lambda_f6c7be5f7998530c34de24c7437d6b54>@@@Z 000000018001adf0 f   libucrt:close.obj
 0001:0001a360       $$000000                   000000018001b360     libucrt:log10.obj
 0001:0001a974       ?_wcstombs_l_helper@@YA_KPEADPEB_W_KPEAU__crt_locale_pointers@@@Z 000000018001b974 f   libucrt:wcstombs.obj
 0001:0001b1a8       _call_matherr              000000018001c1a8 f   libucrt:libm_error.obj
 0001:0001b210       _exception_enabled         000000018001c210 f   libucrt:libm_error.obj
 0001:0001b4a0       _log_special_common        000000018001c4a0 f   libucrt:log_special.obj
 0001:0001b660       $$000000                   000000018001c660     libucrt:fpsr.obj
 0001:0001c420       $$000000                   000000018001d420     LIBCMT:_chkstk_.obj
 0001:0001c650       $$000000                   000000018001d650     libvcruntime:memcmp.obj
 0001:0001c730       $$000000                   000000018001d730     LIBCMT:_guard_dispatch_.obj
 0001:0001c750       __scrt_is_nonwritable_in_current_image$filt$0 000000018001d750 f   LIBCMT:utility.obj
 0001:0001c768       ?fin$0@?0??dllmain_crt_process_attach@@YAHQEAUHINSTANCE__@@QEAX@Z@4HA 000000018001d768 f   LIBCMT:dll_dllmain.obj
 0001:0001c77f       ?fin$0@?0??dllmain_crt_process_detach@@YAH_N@Z@4HA 000000018001d77f f   LIBCMT:dll_dllmain.obj
 0001:0001c79b       ?filt$0@?0??dllmain_dispatch@@YAHQEAUHINSTANCE__@@KQEAX@Z@4HA 000000018001d79b f   LIBCMT:dll_dllmain.obj
 0001:0001c7d1       __DestructExceptionObject$filt$0 000000018001d7d1 f   libvcruntime:ehhelpers.obj
 0001:0001c7e9       ?filt$0@?0???$_CallSETranslator@V__FrameHandler3@@@@YAHPEAUEHExceptionRecord@@PEA_KPEAU_CONTEXT@@PEAU_xDISPATCHER_CONTEXT@@PEBU_s_FuncInfo@@K1@Z@4HA 000000018001d7e9 f   libvcruntime:risctrnsctrl.obj
 0001:0001c87a       ?filt$0@?0??CxxCallCatchBlock@__FrameHandler3@@SAPEAXPEAU_EXCEPTION_RECORD@@@Z@4HA 000000018001d87a f   libvcruntime:frame.obj
 0001:0001c89f       ?fin$1@?0??CxxCallCatchBlock@__FrameHandler3@@SAPEAXPEAU_EXCEPTION_RECORD@@@Z@4HA 000000018001d89f f   libvcruntime:frame.obj
 0001:0001c917       ?filt$0@?0??FrameUnwindToState@__FrameHandler3@@SAXPEA_KPEAU_xDISPATCHER_CONTEXT@@PEBU_s_FuncInfo@@H@Z@4HA 000000018001d917 f   libvcruntime:frame.obj
 0001:0001c92d       ?fin$1@?0??FrameUnwindToState@__FrameHandler3@@SAXPEA_KPEAU_xDISPATCHER_CONTEXT@@PEBU_s_FuncInfo@@H@Z@4HA 000000018001d92d f   libvcruntime:frame.obj
 0001:0001c950       ?fin$0@?0???$?RV<lambda_a62c933ada0517137acf5807a1eeac1f>@@AEAV<lambda_a31071773b9a94e445cbd5d04ef99106>@@V<lambda_56065050dbf3ada7e59a83db45153de3>@@@?$__crt_seh_guarded_call@H@@QEAAH$$QEAV<lambda_a62c933ada0517137acf5807a1eeac1f>@@AEAV<lambda_a31071773b9a94e445cbd5d04ef99106>@@$$QEAV<lambda_56065050dbf3ada7e59a83db45153de3>@@@Z@4HA 000000018001d950 f   libucrt:output.obj
 0001:0001c950       ?fin$0@?0???$?RV<lambda_0d412022a4b28cc8a401ea49574e8ae6>@@AEAV<lambda_a775ed57af18ba8e4d5dc780aa9068fe>@@V<lambda_975a71a6baa488a08f4e15f6b0339b9e>@@@?$__crt_seh_guarded_call@H@@QEAAH$$QEAV<lambda_0d412022a4b28cc8a401ea49574e8ae6>@@AEAV<lambda_a775ed57af18ba8e4d5dc780aa9068fe>@@$$QEAV<lambda_975a71a6baa488a08f4e15f6b0339b9e>@@@Z@4HA 000000018001d950 f   libucrt:output.obj
 0001:0001c950       ?fin$0@?0???$?RV<lambda_c376a267cfb53b6959b3b692ec76b120>@@AEAV<lambda_9a32fed5bf61b6b509b2d3f6003082a1>@@V<lambda_572fbb9fa0ab338edf41edfd4b5fcc8d>@@@?$__crt_seh_guarded_call@H@@QEAAH$$QEAV<lambda_c376a267cfb53b6959b3b692ec76b120>@@AEAV<lambda_9a32fed5bf61b6b509b2d3f6003082a1>@@$$QEAV<lambda_572fbb9fa0ab338edf41edfd4b5fcc8d>@@@Z@4HA 000000018001d950 f   libucrt:fflush.obj
 0001:0001c950       ?fin$0@?0???$?RV<lambda_84ec643ea9557e2f7dc01bb0e9624395>@@AEAV<lambda_ca71763b3c0644891230e4f79ea54fa6>@@V<lambda_439a761618c59b0600e24586724d733b>@@@?$__crt_seh_guarded_call@H@@QEAAH$$QEAV<lambda_84ec643ea9557e2f7dc01bb0e9624395>@@AEAV<lambda_ca71763b3c0644891230e4f79ea54fa6>@@$$QEAV<lambda_439a761618c59b0600e24586724d733b>@@@Z@4HA 000000018001d950 f   libucrt:setvbuf.obj
 0001:0001c950       ?fin$0@?0???$?RV<lambda_842d9ff0dc9ef11c61343bbaebe7f885>@@AEAV<lambda_c5860995281e5c4ce005b3de8f5874ee>@@V<lambda_d90129c13df834fdcbf8d2b88dafcf2d>@@@?$__crt_seh_guarded_call@X@@QEAAX$$QEAV<lambda_842d9ff0dc9ef11c61343bbaebe7f885>@@AEAV<lambda_c5860995281e5c4ce005b3de8f5874ee>@@$$QEAV<lambda_d90129c13df834fdcbf8d2b88dafcf2d>@@@Z@4HA 000000018001d950 f   libucrt:fflush.obj
 0001:0001c96b       _query_new_handler$fin$0   000000018001d96b f   libucrt:new_handler.obj
 0001:0001c981       ?fin$0@?0???$?RV<lambda_d80eeec6fff315bfe5c115232f3240e3>@@AEAV<lambda_6e4b09c48022b2350581041d5f6b0c4c>@@V<lambda_2358e3775559c9db80273638284d5e45>@@@?$__crt_seh_guarded_call@X@@QEAAX$$QEAV<lambda_d80eeec6fff315bfe5c115232f3240e3>@@AEAV<lambda_6e4b09c48022b2350581041d5f6b0c4c>@@$$QEAV<lambda_2358e3775559c9db80273638284d5e45>@@@Z@4HA 000000018001d981 f   libucrt:exit.obj
 0001:0001c981       ?fin$0@?0???$?RV<lambda_2d41944a1d46af3157314b8a01080d33>@@AEAV<lambda_8f455de75cd7d7f24b4096f044d8b9e6>@@V<lambda_aa500f224e6afead328df44964fe2772>@@@?$__crt_seh_guarded_call@X@@QEAAX$$QEAV<lambda_2d41944a1d46af3157314b8a01080d33>@@AEAV<lambda_8f455de75cd7d7f24b4096f044d8b9e6>@@$$QEAV<lambda_aa500f224e6afead328df44964fe2772>@@@Z@4HA 000000018001d981 f   libucrt:per_thread_data.obj
 0001:0001c981       ?fin$0@?0???$?RV<lambda_efdfa57d1f175319df784efa44bb7b81>@@AEAV<lambda_5f0a4c1567f8adc6734073e5d1e1b35c>@@V<lambda_2e8a7d3640ea6ccb4c2413664c2db6fd>@@@?$__crt_seh_guarded_call@X@@QEAAX$$QEAV<lambda_efdfa57d1f175319df784efa44bb7b81>@@AEAV<lambda_5f0a4c1567f8adc6734073e5d1e1b35c>@@$$QEAV<lambda_2e8a7d3640ea6ccb4c2413664c2db6fd>@@@Z@4HA 000000018001d981 f   libucrt:mbctype.obj
 0001:0001c981       ?fin$0@?0???$?RV<lambda_aa87e3671a710a21b5dc78c0bdf72e11>@@AEAV<lambda_92619d2358a28f41a33ba319515a20b9>@@V<lambda_6992ecaafeb10aed2b74cb1fae11a551>@@@?$__crt_seh_guarded_call@X@@QEAAX$$QEAV<lambda_aa87e3671a710a21b5dc78c0bdf72e11>@@AEAV<lambda_92619d2358a28f41a33ba319515a20b9>@@$$QEAV<lambda_6992ecaafeb10aed2b74cb1fae11a551>@@@Z@4HA 000000018001d981 f   libucrt:per_thread_data.obj
 0001:0001c981       ?fin$0@?0???$?RV<lambda_8369fcb7c4df1e85de37618bd2b85f07>@@AEAV<lambda_a10e4b102d4a2c3aac6f4f48bbdf488f>@@V<lambda_5b7707bd6d7a0c4713179f36c7fd995d>@@@?$__crt_seh_guarded_call@H@@QEAAH$$QEAV<lambda_8369fcb7c4df1e85de37618bd2b85f07>@@AEAV<lambda_a10e4b102d4a2c3aac6f4f48bbdf488f>@@$$QEAV<lambda_5b7707bd6d7a0c4713179f36c7fd995d>@@@Z@4HA 000000018001d981 f   libucrt:onexit.obj
 0001:0001c981       ?fin$0@?0???$?RV<lambda_7777bce6b2f8c936911f934f8298dc43>@@AEAV<lambda_f03950bc5685219e0bcd2087efbe011e>@@V<lambda_3883c3dff614d5e0c5f61bb1ac94921c>@@@?$__crt_seh_guarded_call@H@@QEAAH$$QEAV<lambda_7777bce6b2f8c936911f934f8298dc43>@@AEAV<lambda_f03950bc5685219e0bcd2087efbe011e>@@$$QEAV<lambda_3883c3dff614d5e0c5f61bb1ac94921c>@@@Z@4HA 000000018001d981 f   libucrt:onexit.obj
 0001:0001c981       ?fin$0@?0???$?RV<lambda_f2e299630e499de9f9a165e60fcd3db5>@@AEAV<lambda_2ae9d31cdba2644fcbeaf08da7c24588>@@V<lambda_40d01ff24d0e7b3814fdbdcee8eab3c7>@@@?$__crt_seh_guarded_call@X@@QEAAX$$QEAV<lambda_f2e299630e499de9f9a165e60fcd3db5>@@AEAV<lambda_2ae9d31cdba2644fcbeaf08da7c24588>@@$$QEAV<lambda_40d01ff24d0e7b3814fdbdcee8eab3c7>@@@Z@4HA 000000018001d981 f   libucrt:per_thread_data.obj
 0001:0001c981       ?fin$0@?0???$?RV<lambda_450d765d439847d4c735a33c368b5fc0>@@AEAV<lambda_44731a7d0e6d81c3e6aa82d741081786>@@V<lambda_601a2a7da3b7a96e9554ac7215c4b07c>@@@?$__crt_seh_guarded_call@P6AXH@Z@@QEAAP6AXH@Z$$QEAV<lambda_450d765d439847d4c735a33c368b5fc0>@@AEAV<lambda_44731a7d0e6d81c3e6aa82d741081786>@@$$QEAV<lambda_601a2a7da3b7a96e9554ac7215c4b07c>@@@Z@4HA 000000018001d981 f   libucrt:signal.obj
 0001:0001c981       ?fin$0@?0???$?RV<lambda_0ae27a3a962d80f24befdcbee591983d>@@AEAV<lambda_8d0ee55de4b1038c4002e0adecdf1839>@@V<lambda_dc504788e8f1664fe9b84e20bfb512f2>@@@?$__crt_seh_guarded_call@X@@QEAAX$$QEAV<lambda_0ae27a3a962d80f24befdcbee591983d>@@AEAV<lambda_8d0ee55de4b1038c4002e0adecdf1839>@@$$QEAV<lambda_dc504788e8f1664fe9b84e20bfb512f2>@@@Z@4HA 000000018001d981 f   libucrt:per_thread_data.obj
 0001:0001c99b       ?filt$0@?0???R<lambda_6e4b09c48022b2350581041d5f6b0c4c>@@QEBA@XZ@4HA 000000018001d99b f   libucrt:exit.obj
 0001:0001c9b6       ?fin$0@?0???$?RV<lambda_886d6c58226a84441f68b9f2b8217b83>@@AEAV<lambda_ab61a845afdef5b7c387490eaf3616ee>@@V<lambda_f7f22ab5edc0698d5f6905b0d3f44752>@@@?$__crt_seh_guarded_call@X@@QEAAX$$QEAV<lambda_886d6c58226a84441f68b9f2b8217b83>@@AEAV<lambda_ab61a845afdef5b7c387490eaf3616ee>@@$$QEAV<lambda_f7f22ab5edc0698d5f6905b0d3f44752>@@@Z@4HA 000000018001d9b6 f   libucrt:fflush.obj
 0001:0001c9d3       raise$fin$0                000000018001d9d3 f   libucrt:signal.obj
 0001:0001c9f4       _fcloseall$fin$0           000000018001d9f4 f   libucrt:closeall.obj
 0001:0001ca0d       __acrt_lowio_ensure_fh_exists$fin$0 000000018001da0d f   libucrt:osfinfo.obj
 0001:0001ca0d       __acrt_initialize_lowio$fin$0 000000018001da0d f   libucrt:ioinit.obj
 0001:0001ca26       ?fin$0@?0???$?RV<lambda_410d79af7f07d98d83a3f525b3859a53>@@AEAV<lambda_3e16ef9562a7dcce91392c22ab16ea36>@@V<lambda_38119f0e861e05405d8a144b9b982f0a>@@@?$__crt_seh_guarded_call@X@@QEAAX$$QEAV<lambda_410d79af7f07d98d83a3f525b3859a53>@@AEAV<lambda_3e16ef9562a7dcce91392c22ab16ea36>@@$$QEAV<lambda_38119f0e861e05405d8a144b9b982f0a>@@@Z@4HA 000000018001da26 f   libucrt:wsetlocale.obj
 0001:0001ca40       ?fin$0@?0??update_thread_multibyte_data_internal@@YAPEAU__crt_multibyte_data@@QEAU__acrt_ptd@@QEAPEAU1@@Z@4HA 000000018001da40 f   libucrt:mbctype.obj
 0001:0001ca59       ?fin$0@?0???$?RV<lambda_a37b2b86f63e897a80ea819b0eb08c01>@@AEAV<lambda_38ce7e780aa69e748d6df282ebc68efe>@@V<lambda_99fb1378e971ab6e7edea83e3a7a83a2>@@@?$__crt_seh_guarded_call@H@@QEAAH$$QEAV<lambda_a37b2b86f63e897a80ea819b0eb08c01>@@AEAV<lambda_38ce7e780aa69e748d6df282ebc68efe>@@$$QEAV<lambda_99fb1378e971ab6e7edea83e3a7a83a2>@@@Z@4HA 000000018001da59 f   libucrt:commit.obj
 0001:0001ca59       ?fin$0@?0???$?RV<lambda_751a882b2c74d4b022dec766aa51a29a>@@AEAV<lambda_628dfdc04ba53c8bfc02c9951375f3f5>@@V<lambda_f6c7be5f7998530c34de24c7437d6b54>@@@?$__crt_seh_guarded_call@H@@QEAAH$$QEAV<lambda_751a882b2c74d4b022dec766aa51a29a>@@AEAV<lambda_628dfdc04ba53c8bfc02c9951375f3f5>@@$$QEAV<lambda_f6c7be5f7998530c34de24c7437d6b54>@@@Z@4HA 000000018001da59 f   libucrt:close.obj
 0001:0001ca73       ?fin$0@?0???$common_lseek@_J@@YA_JH_JH@Z@4HA 000000018001da73 f   libucrt:lseek.obj
 0001:0001ca73       _write$fin$0               000000018001da73 f   libucrt:write.obj
 0001:0001ca8a       fclose$fin$0               000000018001da8a f   libucrt:fclose.obj
 0001:0001caa2       __acrt_update_thread_locale_data$fin$0 000000018001daa2 f   libucrt:locale_refcounting.obj
 0001:0001cabb       ?dtor$0@?0??_wcstombs_l_helper@@YA_KPEADPEB_W_KPEAU__crt_locale_pointers@@@Z@4HA 000000018001dabb f   libucrt:wcstombs.obj
 0001:0001cac7       _ctrlfp$filt$0             000000018001dac7 f   libucrt:fpctrl.obj
 0001:0001cb00       _IsNonwritableInCurrentImage$filt$0 000000018001db00 f   LIBCMT:pesect.obj
 0001:0001cb20       ??__F?constructor_template@Kerberos@@2V?$Persistent@VFunctionTemplate@v8@@V?$NonCopyablePersistentTraits@VFunctionTemplate@v8@@@2@@Nan@@A@@YAXXZ 000000018001db20 f   kerberos.obj
 0001:0001cb30       ??__F?constructor_template@SecurityBuffer@@2V?$Persistent@VFunctionTemplate@v8@@V?$NonCopyablePersistentTraits@VFunctionTemplate@v8@@@2@@Nan@@A@@YAXXZ 000000018001db30 f   security_buffer.obj
 0001:0001cb40       ??__F?constructor_template@SecurityBufferDescriptor@@2V?$Persistent@VFunctionTemplate@v8@@V?$NonCopyablePersistentTraits@VFunctionTemplate@v8@@@2@@Nan@@A@@YAXXZ 000000018001db40 f   security_buffer_descriptor.obj
 0001:0001cb50       ??__F?constructor_template@SecurityContext@@2V?$Persistent@VFunctionTemplate@v8@@V?$NonCopyablePersistentTraits@VFunctionTemplate@v8@@@2@@Nan@@A@@YAXXZ 000000018001db50 f   security_context.obj
 0001:0001cb60       ??__F?constructor_template@SecurityCredentials@@2V?$Persistent@VFunctionTemplate@v8@@V?$NonCopyablePersistentTraits@VFunctionTemplate@v8@@@2@@Nan@@A@@YAXXZ 000000018001db60 f   security_credentials.obj
 0002:00000278       ??constructor_template$initializer$@Kerberos@@2P6AXXZEA@@3P6AXXZEA 000000018001e278     kerberos.obj
 0002:00000280       ??constructor_template$initializer$@SecurityBuffer@@2P6AXXZEA@@3P6AXXZEA 000000018001e280     security_buffer.obj
 0002:00000288       ??constructor_template$initializer$@SecurityBufferDescriptor@@2P6AXXZEA@@3P6AXXZEA 000000018001e288     security_buffer_descriptor.obj
 0002:00000290       ??constructor_template$initializer$@SecurityContext@@2P6AXXZEA@@3P6AXXZEA 000000018001e290     security_context.obj
 0002:00000298       ??constructor_template$initializer$@SecurityCredentials@@2P6AXXZEA@@3P6AXXZEA 000000018001e298     security_credentials.obj
 0002:00000328       GS_ExceptionPointers       000000018001e328     LIBCMT:gs_report.obj
 0002:000003d0       ?ExceptionTemplate@?1??_CxxThrowException@@9@4UEHExceptionRecord@@B 000000018001e3d0     libvcruntime:throw.obj
 0002:00000410       ?module_names@?A0xcc2f1bd3@@3QBQEB_WB 000000018001e410     libvcruntime:winapi_downlevel.obj
 0002:000004e0       ?candidate_modules@?1??try_get_FlsAlloc@@YAP6AKP6AXPEAX@Z@ZXZ@4QBW4module_id@?A0xcc2f1bd3@@B 000000018001e4e0     libvcruntime:winapi_downlevel.obj
 0002:000004f8       ?candidate_modules@?1??try_get_FlsFree@@YAP6AHK@ZXZ@4QBW4module_id@?A0xcc2f1bd3@@B 000000018001e4f8     libvcruntime:winapi_downlevel.obj
 0002:00000508       ?candidate_modules@?1??try_get_FlsGetValue@@YAP6APEAXK@ZXZ@4QBW4module_id@?A0xcc2f1bd3@@B 000000018001e508     libvcruntime:winapi_downlevel.obj
 0002:00000520       ?candidate_modules@?1??try_get_FlsSetValue@@YAP6AHKPEAX@ZXZ@4QBW4module_id@?A0xcc2f1bd3@@B 000000018001e520     libvcruntime:winapi_downlevel.obj
 0002:00000538       ?candidate_modules@?1??try_get_InitializeCriticalSectionEx@@YAP6AHPEAU_RTL_CRITICAL_SECTION@@KK@ZXZ@4QBW4module_id@?A0xcc2f1bd3@@B 000000018001e538     libvcruntime:winapi_downlevel.obj
 0002:00000570       ?tokenTable@@3QBQEBDB      000000018001e570     libvcruntime:undname.obj
 0002:000005f0       ?nameTable@@3QBQEBDB       000000018001e5f0     libvcruntime:undname.obj
 0002:00000880       ?rttiTable@@3QBQEBDB       000000018001e880     libvcruntime:undname.obj
 0002:00000f40       ?ExceptionTemplate@?1??UnwindNestedFrames@__FrameHandler3@@SAXPEA_KPEAUEHExceptionRecord@@PEAU_CONTEXT@@0PEAXPEBU_s_FuncInfo@@HHPEBU_s_HandlerType@@PEAU_xDISPATCHER_CONTEXT@@E@Z@4U_EXCEPTION_RECORD@@B 000000018001ef40     libvcruntime:risctrnsctrl.obj
 0002:00001460       __acrt_initializers        000000018001f460     libucrt:initialization.obj
 0002:00001560       ?errtable@@3QBUerrentry@?A0x31fdb9ec@@B 000000018001f560     libucrt:errno.obj
 0002:000016c0       ?module_names@?A0x391cf84c@@3QBQEB_WB 000000018001f6c0     libucrt:winapi_thunks.obj
 0002:00001c68       ?candidate_modules@?1??try_get_FlsAlloc@@YAP6AKP6AXPEAX@Z@ZXZ@4QBW4module_id@?A0x391cf84c@@B 000000018001fc68     libucrt:winapi_thunks.obj
 0002:00001c80       ?candidate_modules@?1??try_get_FlsFree@@YAP6AHK@ZXZ@4QBW4module_id@?A0x391cf84c@@B 000000018001fc80     libucrt:winapi_thunks.obj
 0002:00001c90       ?candidate_modules@?1??try_get_FlsGetValue@@YAP6APEAXK@ZXZ@4QBW4module_id@?A0x391cf84c@@B 000000018001fc90     libucrt:winapi_thunks.obj
 0002:00001ca8       ?candidate_modules@?1??try_get_FlsSetValue@@YAP6AHKPEAX@ZXZ@4QBW4module_id@?A0x391cf84c@@B 000000018001fca8     libucrt:winapi_thunks.obj
 0002:00001cc0       ?candidate_modules@?1??try_get_GetActiveWindow@@YAP6APEAUHWND__@@XZXZ@4QBW4module_id@?A0x391cf84c@@B 000000018001fcc0     libucrt:winapi_thunks.obj
 0002:00001cd8       ?candidate_modules@?1??try_get_GetLastActivePopup@@YAP6APEAUHWND__@@PEAU2@@ZXZ@4QBW4module_id@?A0x391cf84c@@B 000000018001fcd8     libucrt:winapi_thunks.obj
 0002:00001cf8       ?candidate_modules@?1??try_get_GetProcessWindowStation@@YAP6APEAUHWINSTA__@@XZXZ@4QBW4module_id@?A0x391cf84c@@B 000000018001fcf8     libucrt:winapi_thunks.obj
 0002:00001d18       ?candidate_modules@?1??try_get_GetUserObjectInformationW@@YAP6AHPEAXH0KPEAK@ZXZ@4QBW4module_id@?A0x391cf84c@@B 000000018001fd18     libucrt:winapi_thunks.obj
 0002:00001d40       ?candidate_modules@?1??try_get_InitializeCriticalSectionEx@@YAP6AHPEAU_RTL_CRITICAL_SECTION@@KK@ZXZ@4QBW4module_id@?A0x391cf84c@@B 000000018001fd40     libucrt:winapi_thunks.obj
 0002:00001d68       ?candidate_modules@?1??try_get_LCMapStringEx@@YAP6AHPEB_WK0HPEA_WHPEAU_nlsversioninfo@@PEAX_J@ZXZ@4QBW4module_id@?A0x391cf84c@@B 000000018001fd68     libucrt:winapi_thunks.obj
 0002:00001d80       ?candidate_modules@?1??try_get_LocaleNameToLCID@@YAP6AKPEB_WK@ZXZ@4QBW4module_id@?A0x391cf84c@@B 000000018001fd80     libucrt:winapi_thunks.obj
 0002:00001da0       ?candidate_modules@?1??try_get_MessageBoxA@@YAP6AHPEAUHWND__@@PEBD1I@ZXZ@4QBW4module_id@?A0x391cf84c@@B 000000018001fda0     libucrt:winapi_thunks.obj
 0002:00001db8       ?candidate_modules@?1??try_get_MessageBoxW@@YAP6AHPEAUHWND__@@PEB_W1I@ZXZ@4QBW4module_id@?A0x391cf84c@@B 000000018001fdb8     libucrt:winapi_thunks.obj
 0002:00001dcc       ?candidate_modules@?1??try_get_AppPolicyGetProcessTerminationMethod@@YAP6AJPEAXPEAW4AppPolicyProcessTerminationMethod@@@ZXZ@4QBW4module_id@?A0x391cf84c@@B 000000018001fdcc     libucrt:winapi_thunks.obj
 0002:00001df8       ?candidate_modules@?1??try_get_AppPolicyGetShowDeveloperDiagnostic@@YAP6AJPEAXPEAW4AppPolicyShowDeveloperDiagnostic@@@ZXZ@4QBW4module_id@?A0x391cf84c@@B 000000018001fdf8     libucrt:winapi_thunks.obj
 0002:00001e24       ?candidate_modules@?1??try_get_AppPolicyGetWindowingModel@@YAP6AJPEAXPEAW4AppPolicyWindowingModel@@@ZXZ@4QBW4module_id@?A0x391cf84c@@B 000000018001fe24     libucrt:winapi_thunks.obj
 0002:00002520       ?_mb_locale_names@@3QBQEB_WB 0000000180020520     libucrt:mbctype.obj
 0002:00002d90       ?LcidToLocaleNameTable@?A0x881e4c05@@3QBULcidToLocaleName@1@B 0000000180020d90     libucrt:lcidtoname_downlevel.obj
 0002:000047f0       ?LocaleNameToIndexTable@?A0x881e4c05@@3QBULocaleNameIndex@1@B 00000001800227f0     libucrt:lcidtoname_downlevel.obj
 0002:00006a90       __real_ninf                0000000180024a90     libucrt:log10.obj
 0002:00006aa0       __real_inf                 0000000180024aa0     libucrt:log10.obj
 0002:00006ab0       __real_neg_qnan            0000000180024ab0     libucrt:log10.obj
 0002:00006ac0       __real_qnanbit             0000000180024ac0     libucrt:log10.obj
 0002:00006ad0       __int_1023                 0000000180024ad0     libucrt:log10.obj
 0002:00006ae0       __mask_001                 0000000180024ae0     libucrt:log10.obj
 0002:00006af0       __mask_mant                0000000180024af0     libucrt:log10.obj
 0002:00006b00       __mask_mant_top8           0000000180024b00     libucrt:log10.obj
 0002:00006b10       __mask_mant9               0000000180024b10     libucrt:log10.obj
 0002:00006b20       __real_log10_e             0000000180024b20     libucrt:log10.obj
 0002:00006b30       __real_log10_e_lead        0000000180024b30     libucrt:log10.obj
 0002:00006b40       __real_log10_e_tail        0000000180024b40     libucrt:log10.obj
 0002:00006b50       __real_log10_2_lead        0000000180024b50     libucrt:log10.obj
 0002:00006b60       __real_log10_2_tail        0000000180024b60     libucrt:log10.obj
 0002:00006b70       __real_two                 0000000180024b70     libucrt:log10.obj
 0002:00006b80       __real_one                 0000000180024b80     libucrt:log10.obj
 0002:00006b90       __real_half                0000000180024b90     libucrt:log10.obj
 0002:00006ba0       __mask_100                 0000000180024ba0     libucrt:log10.obj
 0002:00006bb0       __real_1_over_512          0000000180024bb0     libucrt:log10.obj
 0002:00006bc0       __real_1_over_2            0000000180024bc0     libucrt:log10.obj
 0002:00006bd0       __real_1_over_3            0000000180024bd0     libucrt:log10.obj
 0002:00006be0       __real_1_over_4            0000000180024be0     libucrt:log10.obj
 0002:00006bf0       __real_1_over_5            0000000180024bf0     libucrt:log10.obj
 0002:00006c00       __real_1_over_6            0000000180024c00     libucrt:log10.obj
 0002:00006c10       __real_neg_1023            0000000180024c10     libucrt:log10.obj
 0002:00006c20       __mask_2045                0000000180024c20     libucrt:log10.obj
 0002:00006c30       __real_threshold           0000000180024c30     libucrt:log10.obj
 0002:00006c40       __real_near_one_lt         0000000180024c40     libucrt:log10.obj
 0002:00006c50       __real_near_one_gt         0000000180024c50     libucrt:log10.obj
 0002:00006c60       __real_min_norm            0000000180024c60     libucrt:log10.obj
 0002:00006c70       __real_notsign             0000000180024c70     libucrt:log10.obj
 0002:00006c80       __real_ca1                 0000000180024c80     libucrt:log10.obj
 0002:00006c90       __real_ca2                 0000000180024c90     libucrt:log10.obj
 0002:00006ca0       __real_ca3                 0000000180024ca0     libucrt:log10.obj
 0002:00006cb0       __real_ca4                 0000000180024cb0     libucrt:log10.obj
 0002:00006cc0       __mask_lower               0000000180024cc0     libucrt:log10.obj
 0002:00006cd0       __flag_x_zero              0000000180024cd0     libucrt:log10.obj
 0002:00006cd4       __flag_x_neg               0000000180024cd4     libucrt:log10.obj
 0002:00006cd8       __flag_x_nan               0000000180024cd8     libucrt:log10.obj
 0002:00006ce0       $cppxdata$?_wcstombs_l_helper@@YA_KPEADPEB_W_KPEAU__crt_locale_pointers@@@Z 0000000180024ce0     libucrt:wcstombs.obj
 0002:00008560       __real@433fffffffffffff    0000000180026560     libucrt:fpsr.obj
 0002:00008568       __real@c33fffffffffffff    0000000180026568     libucrt:fpsr.obj
 0002:000089e0       index_64                   00000001800269e0     base64.obj
 0002:00008a60       basis_64                   0000000180026a60     base64.obj
 0002:0000a708       $unwind$?FunctionCallbackWrapper@imp@Nan@@YAXAEBV?$FunctionCallbackInfo@VValue@v8@@@v8@@@Z 0000000180028708     kerberos.obj
 0002:0000a71c       $unwind$?New@?$Factory@VFunctionTemplate@v8@@@imp@Nan@@SA?AV?$Local@VFunctionTemplate@v8@@@v8@@P6AXAEBV?$FunctionCallbackInfo@VValue@v8@@@3@@ZV?$Local@VValue@v8@@@5@V?$Local@VSignature@v8@@@5@@Z 000000018002871c     kerberos.obj
 0002:0000a730       $chain$0$?New@?$Factory@VFunctionTemplate@v8@@@imp@Nan@@SA?AV?$Local@VFunctionTemplate@v8@@@v8@@P6AXAEBV?$FunctionCallbackInfo@VValue@v8@@@3@@ZV?$Local@VValue@v8@@@5@V?$Local@VSignature@v8@@@5@@Z 0000000180028730     kerberos.obj
 0002:0000a744       $chain$1$?New@?$Factory@VFunctionTemplate@v8@@@imp@Nan@@SA?AV?$Local@VFunctionTemplate@v8@@@v8@@P6AXAEBV?$FunctionCallbackInfo@VValue@v8@@@3@@ZV?$Local@VValue@v8@@@5@V?$Local@VSignature@v8@@@5@@Z 0000000180028744     kerberos.obj
 0002:0000a758       $chain$2$?New@?$Factory@VFunctionTemplate@v8@@@imp@Nan@@SA?AV?$Local@VFunctionTemplate@v8@@@v8@@P6AXAEBV?$FunctionCallbackInfo@VValue@v8@@@3@@ZV?$Local@VValue@v8@@@5@V?$Local@VSignature@v8@@@5@@Z 0000000180028758     kerberos.obj
 0002:0000a768       $chain$3$?New@?$Factory@VFunctionTemplate@v8@@@imp@Nan@@SA?AV?$Local@VFunctionTemplate@v8@@@v8@@P6AXAEBV?$FunctionCallbackInfo@VValue@v8@@@3@@ZV?$Local@VValue@v8@@@5@V?$Local@VSignature@v8@@@5@@Z 0000000180028768     kerberos.obj
 0002:0000a778       $unwind$_exception_enabled 0000000180028778     libucrt:libm_error.obj
 0002:0000a778       $unwind$?type_case_n@?$output_processor@_WV?$string_output_adapter@_W@__crt_stdio_output@@V?$standard_base@_WV?$string_output_adapter@_W@__crt_stdio_output@@@2@@__crt_stdio_output@@AEAA_NXZ 0000000180028778     libucrt:output.obj
 0002:0000a778       $unwind$?type_case_s@?$output_processor@_WV?$stream_output_adapter@_W@__crt_stdio_output@@V?$standard_base@_WV?$stream_output_adapter@_W@__crt_stdio_output@@@2@@__crt_stdio_output@@AEAA_NXZ 0000000180028778     libucrt:output.obj
 0002:0000a778       $unwind$__acrt_InitializeCriticalSectionEx 0000000180028778     libucrt:winapi_thunks.obj
 0002:0000a778       $unwind$?CatchTryBlock@__FrameHandler3@@SAPEBU_s_TryBlockMapEntry@@PEBU_s_FuncInfo@@H@Z 0000000180028778     libvcruntime:risctrnsctrl.obj
 0002:0000a778       $unwind$__vcrt_getptd_noexit 0000000180028778     libvcruntime:per_thread_data.obj
 0002:0000a778       $unwind$?free_crt_array_internal@@YAXQEAPEBX_K@Z 0000000180028778     libucrt:inittime.obj
 0002:0000a778       $unwind$memcpy_s           0000000180028778     libucrt:cfout.obj
 0002:0000a778       $unwind$?type_case_s@?$output_processor@_WV?$string_output_adapter@_W@__crt_stdio_output@@V?$standard_base@_WV?$string_output_adapter@_W@__crt_stdio_output@@@2@@__crt_stdio_output@@AEAA_NXZ 0000000180028778     libucrt:output.obj
 0002:0000a778       $unwind$?type_case_n@?$output_processor@_WV?$stream_output_adapter@_W@__crt_stdio_output@@V?$standard_base@_WV?$stream_output_adapter@_W@__crt_stdio_output@@@2@@__crt_stdio_output@@AEAA_NXZ 0000000180028778     libucrt:output.obj
 0002:0000a778       $unwind$?type_case_Z@?$output_processor@_WV?$string_output_adapter@_W@__crt_stdio_output@@V?$standard_base@_WV?$string_output_adapter@_W@__crt_stdio_output@@@2@@__crt_stdio_output@@AEAA_NXZ 0000000180028778     libucrt:output.obj
 0002:0000a778       $unwind$?type_case_Z@?$output_processor@_WV?$stream_output_adapter@_W@__crt_stdio_output@@V?$standard_base@_WV?$stream_output_adapter@_W@__crt_stdio_output@@@2@@__crt_stdio_output@@AEAA_NXZ 0000000180028778     libucrt:output.obj
 0002:0000a778       $unwind$__acrt_execute_initializers 0000000180028778     libucrt:shared_initialization.obj
 0002:0000a778       $unwind$?Wrap@ObjectWrap@Nan@@IEAAXV?$Local@VObject@v8@@@v8@@@Z 0000000180028778     kerberos.obj
 0002:0000a778       $unwind$__acrt_stdio_flush_nolock 0000000180028778     libucrt:fflush.obj
 0002:0000a778       $unwind$__acrt_stdio_flush_and_write_wide_nolock 0000000180028778     libucrt:_flsbuf.obj
 0002:0000a778       $unwind$??_GSecurityCredentials@@UEAAPEAXI@Z 0000000180028778     security_credentials.obj
 0002:0000a778       $unwind$__acrt_stdio_flush_and_write_narrow_nolock 0000000180028778     libucrt:_flsbuf.obj
 0002:0000a778       $unwind$??$common_lseek_nolock@_J@@YA_JH_JH@Z 0000000180028778     libucrt:lseek.obj
 0002:0000a778       $unwind$?FrameUnwindToEmptyState@__FrameHandler3@@SAXPEA_KPEAU_xDISPATCHER_CONTEXT@@PEBU_s_FuncInfo@@@Z 0000000180028778     libvcruntime:risctrnsctrl.obj
 0002:0000a778       $unwind$__vcrt_InitializeCriticalSectionEx 0000000180028778     libvcruntime:winapi_downlevel.obj
 0002:0000a778       $unwind$?type_case_n@?$output_processor@DV?$stream_output_adapter@D@__crt_stdio_output@@V?$standard_base@DV?$stream_output_adapter@D@__crt_stdio_output@@@2@@__crt_stdio_output@@AEAA_NXZ 0000000180028778     libucrt:output.obj
 0002:0000a778       $unwind$_DllMainCRTStartup 0000000180028778     LIBCMT:dll_dllmain.obj
 0002:0000a778       $unwind$??0_LocaleUpdate@@QEAA@QEAU__crt_locale_pointers@@@Z 0000000180028778     libucrt:output.obj
 0002:0000a788       $unwind$?type_case_s@?$output_processor@DV?$stream_output_adapter@D@__crt_stdio_output@@V?$standard_base@DV?$stream_output_adapter@D@__crt_stdio_output@@@2@@__crt_stdio_output@@AEAA_NXZ 0000000180028788     libucrt:output.obj
 0002:0000a788       $unwind$__vcrt_FlsGetValue 0000000180028788     libvcruntime:winapi_downlevel.obj
 0002:0000a788       $unwind$fegetenv           0000000180028788     libucrt:fegetenv.obj
 0002:0000a788       $unwind$__vcrt_FlsFree     0000000180028788     libvcruntime:winapi_downlevel.obj
 0002:0000a788       $unwind$fesetenv           0000000180028788     libucrt:fesetenv.obj
 0002:0000a788       $unwind$__vcrt_FlsAlloc    0000000180028788     libvcruntime:winapi_downlevel.obj
 0002:0000a788       $unwind$feholdexcept       0000000180028788     libucrt:feholdexcept.obj
 0002:0000a788       $unwind$__acrt_FlsFree     0000000180028788     libucrt:winapi_thunks.obj
 0002:0000a788       $unwind$__vcrt_uninitialize_locks 0000000180028788     libvcruntime:locks.obj
 0002:0000a788       $unwind$__vcrt_initialize_locks 0000000180028788     libvcruntime:locks.obj
 0002:0000a788       $unwind$__vcrt_freeptd     0000000180028788     libvcruntime:per_thread_data.obj
 0002:0000a788       $unwind$__acrt_FlsAlloc    0000000180028788     libucrt:winapi_thunks.obj
 0002:0000a788       $unwind$__std_type_info_destroy_list 0000000180028788     libvcruntime:std_type_info.obj
 0002:0000a788       $unwind$__acrt_FlsGetValue 0000000180028788     libucrt:winapi_thunks.obj
 0002:0000a788       $unwind$_IsExceptionObjectToBeDestroyed 0000000180028788     libvcruntime:ehhelpers.obj
 0002:0000a788       $unwind$_clearfp           0000000180028788     libucrt:ieee.obj
 0002:0000a788       $unwind$__std_exception_destroy 0000000180028788     libvcruntime:std_exception.obj
 0002:0000a788       $unwind$??_Gtype_info@@UEAAPEAXI@Z 0000000180028788     LIBCMT:std_type_info_static.obj
 0002:0000a788       $unwind$?state_case_normal@?$output_processor@DV?$stream_output_adapter@D@__crt_stdio_output@@V?$standard_base@DV?$stream_output_adapter@D@__crt_stdio_output@@@2@@__crt_stdio_output@@AEAA_NXZ 0000000180028788     libucrt:output.obj
 0002:0000a788       $unwind$_callnewh          0000000180028788     libucrt:new_handler.obj
 0002:0000a788       $unwind$__acrt_get_windowing_model_policy 0000000180028788     libucrt:win_policies.obj
 0002:0000a788       $unwind$_clrfp             0000000180028788     libucrt:fpctrl.obj
 0002:0000a788       $unwind$__acrt_get_developer_information_policy 0000000180028788     libucrt:win_policies.obj
 0002:0000a788       $unwind$__acrt_AppPolicyGetProcessTerminationMethodInternal 0000000180028788     libucrt:winapi_thunks.obj
 0002:0000a788       $unwind$__acrt_get_process_end_policy 0000000180028788     libucrt:win_policies.obj
 0002:0000a788       $unwind$__acrt_AppPolicyGetShowDeveloperDiagnosticInternal 0000000180028788     libucrt:winapi_thunks.obj
 0002:0000a788       $unwind$??0bad_array_new_length@std@@QEAA@AEBV01@@Z 0000000180028788     LIBCMT:throw_bad_alloc.obj
 0002:0000a788       $unwind$__acrt_AppPolicyGetWindowingModelInternal 0000000180028788     libucrt:winapi_thunks.obj
 0002:0000a788       $unwind$_set_statfp        0000000180028788     libucrt:fpctrl.obj
 0002:0000a788       $unwind$??0bad_alloc@std@@QEAA@AEBV01@@Z 0000000180028788     LIBCMT:throw_bad_alloc.obj
 0002:0000a788       $unwind$?__c16rtomb_utf8@__crt_mbstring@@YA_KPEAD_SPEAU_Mbstatet@@@Z 0000000180028788     libucrt:c16rtomb.obj
 0002:0000a788       $unwind$?ExecutionInCatch@__FrameHandler3@@SA_NPEAU_xDISPATCHER_CONTEXT@@PEBU_s_FuncInfo@@@Z 0000000180028788     libvcruntime:risctrnsctrl.obj
 0002:0000a788       $unwind$__acrt_uninitialize_locks 0000000180028788     libucrt:locks.obj
 0002:0000a788       $unwind$wcscat_s           0000000180028788     libucrt:wcscat_s.obj
 0002:0000a788       $unwind$__acrt_uninitialize_winapi_thunks 0000000180028788     libucrt:winapi_thunks.obj
 0002:0000a788       $unwind$??0exception@std@@QEAA@AEBV01@@Z 0000000180028788     LIBCMT:throw_bad_alloc.obj
 0002:0000a788       $unwind$wcscpy_s           0000000180028788     libucrt:wcscpy_s.obj
 0002:0000a788       $unwind$_SetImageBase      0000000180028788     libvcruntime:risctrnsctrl.obj
 0002:0000a788       $unwind$?HasInstance@SecurityBufferDescriptor@@SA_NV?$Local@VValue@v8@@@v8@@@Z 0000000180028788     security_context.obj
 0002:0000a788       $unwind$__acrt_get_parent_window 0000000180028788     libucrt:winapi_thunks.obj
 0002:0000a788       $unwind$__raise_securityfailure 0000000180028788     LIBCMT:gs_report.obj
 0002:0000a788       $unwind$__acrt_stdio_free_buffer_nolock 0000000180028788     libucrt:_freebuf.obj
 0002:0000a788       $unwind$strcpy_s           0000000180028788     libucrt:strcpy_s.obj
 0002:0000a788       $unwind$uninitialize_allocated_memory 0000000180028788     libucrt:initialization.obj
 0002:0000a788       $unwind$__acrt_uninitialize_stdio 0000000180028788     libucrt:_file.obj
 0002:0000a788       $unwind$_SetThrowImageBase 0000000180028788     libvcruntime:risctrnsctrl.obj
 0002:0000a788       $unwind$_CreateFrameInfo   0000000180028788     libvcruntime:risctrnsctrl.obj
 0002:0000a788       $unwind$initialize_pointers 0000000180028788     libucrt:initialization.obj
 0002:0000a788       $unwind$_calloc_base       0000000180028788     libucrt:calloc_base.obj
 0002:0000a788       $unwind$_malloc_base       0000000180028788     libucrt:malloc_base.obj
 0002:0000a788       $unwind$?internal_isupper_l@@YA_NHQEAU__crt_locale_pointers@@@Z 0000000180028788     libucrt:tolower_toupper.obj
 0002:0000a788       $unwind$??$Unwrap@VSecurityCredentials@@@ObjectWrap@Nan@@SAPEAVSecurityCredentials@@V?$Local@VObject@v8@@@v8@@@Z 0000000180028788     security_context.obj
 0002:0000a788       $unwind$??$Unwrap@VSecurityContext@@@ObjectWrap@Nan@@SAPEAVSecurityContext@@V?$Local@VObject@v8@@@v8@@@Z 0000000180028788     security_context.obj
 0002:0000a788       $unwind$??$Unwrap@VSecurityBufferDescriptor@@@ObjectWrap@Nan@@SAPEAVSecurityBufferDescriptor@@V?$Local@VObject@v8@@@v8@@@Z 0000000180028788     security_buffer_descriptor.obj
 0002:0000a788       $unwind$__acrt_getptd_head 0000000180028788     libucrt:per_thread_data.obj
 0002:0000a788       $unwind$??$Unwrap@VSecurityBuffer@@@ObjectWrap@Nan@@SAPEAVSecurityBuffer@@V?$Local@VObject@v8@@@v8@@@Z 0000000180028788     security_buffer.obj
 0002:0000a788       $unwind$?StateFromIp@__FrameHandler3@@SAHPEBU_s_FuncInfo@@PEAU_xDISPATCHER_CONTEXT@@_K@Z 0000000180028788     libvcruntime:ehstate.obj
 0002:0000a788       $unwind$??_GWorker@@UEAAPEAXI@Z 0000000180028788     worker.obj
 0002:0000a788       $unwind$__acrt_freeptd     0000000180028788     libucrt:per_thread_data.obj
 0002:0000a788       $unwind$_fflush_nolock     0000000180028788     libucrt:fflush.obj
 0002:0000a788       $unwind$??2@YAPEAX_K@Z     0000000180028788     LIBCMT:new_scalar.obj
 0002:0000a788       $unwind$?GetUnwindTryBlock@__FrameHandler3@@SAHPEA_KPEAU_xDISPATCHER_CONTEXT@@PEBU_s_FuncInfo@@@Z 0000000180028788     libvcruntime:ehstate.obj
 0002:0000a788       $unwind$_onexit            0000000180028788     LIBCMT:utility.obj
 0002:0000a788       $unwind$?ExFilterRethrow@@YAHPEAU_EXCEPTION_POINTERS@@PEAUEHExceptionRecord@@PEAH@Z 0000000180028788     libvcruntime:frame.obj
 0002:0000a788       $unwind$?Ref@ObjectWrap@Nan@@MEAAXXZ 0000000180028788     kerberos.obj
 0002:0000a788       $unwind$__scrt_release_startup_lock 0000000180028788     LIBCMT:utility.obj
 0002:0000a788       $unwind$?_map_authSSPIAquire@@YA?AV?$Local@VValue@v8@@@v8@@PEAVWorker@@@Z 0000000180028788     security_credentials.obj
 0002:0000a788       $unwind$?Unref@ObjectWrap@Nan@@MEAAXXZ 0000000180028788     kerberos.obj
 0002:0000a788       $unwind$?New@SecurityCredentials@@CAXAEBV?$FunctionCallbackInfo@VValue@v8@@@Nan@@@Z 0000000180028788     security_credentials.obj
 0002:0000a788       $unwind$__scrt_initialize_crt 0000000180028788     LIBCMT:utility.obj
 0002:0000a788       $unwind$?WeakCallback@ObjectWrap@Nan@@CAXAEBV?$WeakCallbackInfo@VObjectWrap@Nan@@@v8@@@Z 0000000180028788     kerberos.obj
 0002:0000a788       $unwind$__scrt_uninitialize_crt 0000000180028788     LIBCMT:utility.obj
 0002:0000a788       $unwind$?New@Kerberos@@CAXAEBV?$FunctionCallbackInfo@VValue@v8@@@Nan@@@Z 0000000180028788     kerberos.obj
 0002:0000a788       $unwind$__acrt_update_locale_info 0000000180028788     libucrt:locale_update.obj
 0002:0000a788       $unwind$?load_exe_hook@@YAP6A_JXZIPEAUDelayLoadInfo@@@Z 0000000180028788     win_delay_load_hook.obj
 0002:0000a788       $unwind$__acrt_update_multibyte_info 0000000180028788     libucrt:locale_update.obj
 0002:0000a788       $unwind$__acrt_allocate_buffer_for_argv 0000000180028788     libucrt:argv_parsing.obj
 0002:0000a788       $unwind$?exit_or_terminate_process@@YAXI@Z 0000000180028788     libucrt:exit.obj
 0002:0000a788       $unwind$?DloadAcquireSectionWriteAccess@@YAXXZ 0000000180028788     DelayImp:delayhlp.obj
 0002:0000a788       $unwind$__acrt_initialize_locks 0000000180028788     libucrt:locks.obj
 0002:0000a788       $unwind$?try_cor_exit_process@@YAXI@Z 0000000180028788     libucrt:exit.obj
 0002:0000a788       $unwind$??0bad_exception@std@@QEAA@AEBV01@@Z 0000000180028788     libvcruntime:frame.obj
 0002:0000a790       $unwind$?_map_decryptMessage@@YA?AV?$Local@VValue@v8@@@v8@@PEAVWorker@@@Z 0000000180028790     security_context.obj
 0002:0000a790       $unwind$__acrt_getptd      0000000180028790     libucrt:per_thread_data.obj
 0002:0000a790       $unwind$_realloc_base      0000000180028790     libucrt:realloc_base.obj
 0002:0000a790       $unwind$?force_decimal_point@__crt_stdio_output@@YAXPEADQEAU__crt_locale_pointers@@@Z 0000000180028790     libucrt:output.obj
 0002:0000a790       $unwind$__acrt_getptd_noexit 0000000180028790     libucrt:per_thread_data.obj
 0002:0000a790       $unwind$base64_encode      0000000180028790     base64.obj
 0002:0000a790       $unwind$_fclose_nolock     0000000180028790     libucrt:fclose.obj
 0002:0000a790       $unwind$??_Gbad_exception@std@@UEAAPEAXI@Z 0000000180028790     libvcruntime:frame.obj
 0002:0000a790       $unwind$__acrt_fp_strflt_to_string 0000000180028790     libucrt:_fptostr.obj
 0002:0000a790       $unwind$?replace_current_thread_locale_nolock@@YAXQEAU__acrt_ptd@@QEAU__crt_locale_data@@@Z 0000000180028790     libucrt:per_thread_data.obj
 0002:0000a790       $unwind$_updatetlocinfoEx_nolock 0000000180028790     libucrt:locale_refcounting.obj
 0002:0000a790       $unwind$??_GSecurityBuffer@@UEAAPEAXI@Z 0000000180028790     security_buffer.obj
 0002:0000a790       $unwind$strncpy_s          0000000180028790     libucrt:strncpy_s.obj
 0002:0000a790       $unwind$_FindAndUnlinkFrame 0000000180028790     libvcruntime:risctrnsctrl.obj
 0002:0000a790       $unwind$??_GObjectWrap@Nan@@UEAAPEAXI@Z 0000000180028790     kerberos.obj
 0002:0000a790       $unwind$??_GKerberos@@UEAAPEAXI@Z 0000000180028790     kerberos.obj
 0002:0000a790       $unwind$__acrt_FlsSetValue 0000000180028790     libucrt:winapi_thunks.obj
 0002:0000a790       $unwind$??$common_initialize_environment_nolock@D@@YAHXZ 0000000180028790     libucrt:environment_initialization.obj
 0002:0000a790       $unwind$??_GSecurityBufferDescriptor@@UEAAPEAXI@Z 0000000180028790     security_buffer_descriptor.obj
 0002:0000a790       $unwind$__acrt_stdio_begin_temporary_buffering_nolock 0000000180028790     libucrt:_sftbuf.obj
 0002:0000a790       $unwind$?DloadGetSRWLockFunctionPointers@@YAEXZ 0000000180028790     DelayImp:delayhlp.obj
 0002:0000a790       $unwind$?SetUnwindTryBlock@__FrameHandler3@@SAXPEA_KPEAU_xDISPATCHER_CONTEXT@@PEBU_s_FuncInfo@@H@Z 0000000180028790     libvcruntime:ehstate.obj
 0002:0000a790       $unwind$??_Gexception@std@@UEAAPEAXI@Z 0000000180028790     LIBCMT:throw_bad_alloc.obj
 0002:0000a790       $unwind$??_Gbad_alloc@std@@UEAAPEAXI@Z 0000000180028790     LIBCMT:throw_bad_alloc.obj
 0002:0000a790       $unwind$??_Gbad_array_new_length@std@@UEAAPEAXI@Z 0000000180028790     LIBCMT:throw_bad_alloc.obj
 0002:0000a790       $unwind$_RTC_Initialize    0000000180028790     LIBCMT:_initsect_.obj
 0002:0000a790       $unwind$__acrt_uninitialize_lowio 0000000180028790     libucrt:ioinit.obj
 0002:0000a790       $unwind$_initterm_e        0000000180028790     libucrt:initterm.obj
 0002:0000a790       $unwind$_RTC_Terminate     0000000180028790     LIBCMT:_initsect_.obj
 0002:0000a790       $unwind$wcsncat_s          0000000180028790     libucrt:wcsncat_s.obj
 0002:0000a790       $unwind$?_map_encryptMessage@@YA?AV?$Local@VValue@v8@@@v8@@PEAVWorker@@@Z 0000000180028790     security_context.obj
 0002:0000a790       $unwind$?_map_initializeContextStep@@YA?AV?$Local@VValue@v8@@@v8@@PEAVWorker@@@Z 0000000180028790     security_context.obj
 0002:0000a790       $unwind$__acrt_execute_uninitializers 0000000180028790     libucrt:shared_initialization.obj
 0002:0000a790       $unwind$?HasContextGetter@SecurityContext@@SAXV?$Local@VString@v8@@@v8@@AEBV?$PropertyCallbackInfo@VValue@v8@@@Nan@@@Z 0000000180028790     security_context.obj
 0002:0000a790       $unwind$__acrt_can_show_message_box 0000000180028790     libucrt:winapi_thunks.obj
 0002:0000a790       $unwind$__acrt_stdio_allocate_buffer_nolock 0000000180028790     libucrt:_getbuf.obj
 0002:0000a790       $unwind$__vcrt_FlsSetValue 0000000180028790     libvcruntime:winapi_downlevel.obj
 0002:0000a790       $unwind$?type_case_c_tchar@?$output_processor@DV?$stream_output_adapter@D@__crt_stdio_output@@V?$standard_base@DV?$stream_output_adapter@D@__crt_stdio_output@@@2@@__crt_stdio_output@@AEAA_ND@Z 0000000180028790     libucrt:output.obj
 0002:0000a790       $unwind$__acrt_errno_map_os_error 0000000180028790     libucrt:errno.obj
 0002:0000a790       $unwind$__acrt_LocaleNameToLCID 0000000180028790     libucrt:winapi_thunks.obj
 0002:0000a790       $unwind$_close_nolock      0000000180028790     libucrt:close.obj
 0002:0000a790       $unwind$?_map_initializeContext@@YA?AV?$Local@VValue@v8@@@v8@@PEAVWorker@@@Z 0000000180028790     security_context.obj
 0002:0000a790       $unwind$?state_case_normal_tchar@?$output_processor@DV?$stream_output_adapter@D@__crt_stdio_output@@V?$standard_base@DV?$stream_output_adapter@D@__crt_stdio_output@@@2@@__crt_stdio_output@@AEAA_ND@Z 0000000180028790     libucrt:output.obj
 0002:0000a790       $unwind$??_GSecurityContext@@UEAAPEAXI@Z 0000000180028790     security_context.obj
 0002:0000a79c       $unwind$?init@@YAXV?$Local@VObject@v8@@@v8@@@Z 000000018002879c     kerberos.obj
 0002:0000a7ac       $unwind$base64_decode      00000001800287ac     base64.obj
 0002:0000a7c0       $unwind$printf             00000001800287c0     kerberos_sspi.obj
 0002:0000a7cc       $unwind$?ThrowError@Nan@@YAXPEBD@Z 00000001800287cc     security_buffer.obj
 0002:0000a7d4       $unwind$?SetPrototypeMethod@Nan@@YAXV?$Local@VFunctionTemplate@v8@@@v8@@PEBDP6AXAEBV?$FunctionCallbackInfo@VValue@v8@@@1@@Z@Z 00000001800287d4     security_buffer.obj
 0002:0000a7e4       $unwind$?New@SecurityBuffer@@CAXAEBV?$FunctionCallbackInfo@VValue@v8@@@Nan@@@Z 00000001800287e4     security_buffer.obj
 0002:0000a7ec       $chain$2$?New@SecurityBuffer@@CAXAEBV?$FunctionCallbackInfo@VValue@v8@@@Nan@@@Z 00000001800287ec     security_buffer.obj
 0002:0000a808       $chain$3$?New@SecurityBuffer@@CAXAEBV?$FunctionCallbackInfo@VValue@v8@@@Nan@@@Z 0000000180028808     security_buffer.obj
 0002:0000a818       $unwind$?type_case_c_tchar@?$output_processor@_WV?$string_output_adapter@_W@__crt_stdio_output@@V?$standard_base@_WV?$string_output_adapter@_W@__crt_stdio_output@@@2@@__crt_stdio_output@@AEAA_N_W@Z 0000000180028818     libucrt:output.obj
 0002:0000a818       $unwind$?ToBuffer@SecurityBufferDescriptor@@SAXAEBV?$FunctionCallbackInfo@VValue@v8@@@Nan@@@Z 0000000180028818     security_buffer_descriptor.obj
 0002:0000a818       $unwind$??R<lambda_ca71763b3c0644891230e4f79ea54fa6>@@QEBAHXZ 0000000180028818     libucrt:setvbuf.obj
 0002:0000a818       $unwind$?ToBuffer@SecurityBuffer@@SAXAEBV?$FunctionCallbackInfo@VValue@v8@@@Nan@@@Z 0000000180028818     security_buffer.obj
 0002:0000a818       $unwind$?type_case_c_tchar@?$output_processor@_WV?$stream_output_adapter@_W@__crt_stdio_output@@V?$standard_base@_WV?$stream_output_adapter@_W@__crt_stdio_output@@@2@@__crt_stdio_output@@AEAA_N_W@Z 0000000180028818     libucrt:output.obj
 0002:0000a828       $unwind$??0SecurityBufferDescriptor@@QEAA@AEBV?$Persistent@VArray@v8@@V?$NonCopyablePersistentTraits@VArray@v8@@@2@@Nan@@@Z 0000000180028828     security_buffer_descriptor.obj
 0002:0000a838       $chain$1$??0SecurityBufferDescriptor@@QEAA@AEBV?$Persistent@VArray@v8@@V?$NonCopyablePersistentTraits@VArray@v8@@@2@@Nan@@@Z 0000000180028838     security_buffer_descriptor.obj
 0002:0000a850       $chain$2$??0SecurityBufferDescriptor@@QEAA@AEBV?$Persistent@VArray@v8@@V?$NonCopyablePersistentTraits@VArray@v8@@@2@@Nan@@@Z 0000000180028850     security_buffer_descriptor.obj
 0002:0000a860       $unwind$?bufferSize@SecurityBufferDescriptor@@QEAA_KXZ 0000000180028860     security_buffer_descriptor.obj
 0002:0000a870       $chain$2$?bufferSize@SecurityBufferDescriptor@@QEAA_KXZ 0000000180028870     security_buffer_descriptor.obj
 0002:0000a888       $chain$3$?bufferSize@SecurityBufferDescriptor@@QEAA_KXZ 0000000180028888     security_buffer_descriptor.obj
 0002:0000a898       $unwind$?toBuffer@SecurityBufferDescriptor@@QEAAPEADXZ 0000000180028898     security_buffer_descriptor.obj
 0002:0000a8b0       $unwind$?New@SecurityBufferDescriptor@@CAXAEBV?$FunctionCallbackInfo@VValue@v8@@@Nan@@@Z 00000001800288b0     security_buffer_descriptor.obj
 0002:0000a8b0       $unwind$?Initialize@SecurityBufferDescriptor@@SAXV?$Local@VObject@v8@@@v8@@@Z 00000001800288b0     security_buffer_descriptor.obj
 0002:0000a8c0       $unwind$?GetterCallbackWrapper@imp@Nan@@YAXV?$Local@VName@v8@@@v8@@AEBV?$PropertyCallbackInfo@VValue@v8@@@4@@Z 00000001800288c0     security_context.obj
 0002:0000a8c0       $unwind$?write_stored_string_tchar@?$output_processor@_WV?$stream_output_adapter@_W@__crt_stdio_output@@V?$standard_base@_WV?$stream_output_adapter@_W@__crt_stdio_output@@@2@@__crt_stdio_output@@AEAA_N_W@Z 00000001800288c0     libucrt:output.obj
 0002:0000a8d4       $unwind$?NewInstance@Nan@@YA?AV?$MaybeLocal@VObject@v8@@@v8@@V?$Local@VFunction@v8@@@3@@Z 00000001800288d4     security_context.obj
 0002:0000a8e4       $unwind$?Call@Callback@Nan@@QEBA?AV?$Local@VValue@v8@@@v8@@HQEAV34@@Z 00000001800288e4     security_context.obj
 0002:0000a90c       $unwind$?SetAccessor@Nan@@YAXV?$Local@VObjectTemplate@v8@@@v8@@V?$Local@VString@v8@@@3@P6AX1AEBV?$PropertyCallbackInfo@VValue@v8@@@1@@ZP6AX1V?$Local@VValue@v8@@@3@AEBV?$PropertyCallbackInfo@X@1@@Z4W4AccessControl@3@W4PropertyAttribute@3@V?$Local@VAccessorSignature@v8@@@3@@Z 000000018002890c     security_context.obj
 0002:0000a91c       $unwind$?After@@YAXPEAUuv_work_s@@@Z 000000018002891c     security_context.obj
 0002:0000a91c       $unwind$?After@SecurityCredentials@@CAXPEAUuv_work_s@@@Z 000000018002891c     security_credentials.obj
 0002:0000a92c       $chain$0$?After@@YAXPEAUuv_work_s@@@Z 000000018002892c     security_context.obj
 0002:0000a940       $chain$1$?After@@YAXPEAUuv_work_s@@@Z 0000000180028940     security_context.obj
 0002:0000a950       $unwind$?New@SecurityContext@@SAXAEBV?$FunctionCallbackInfo@VValue@v8@@@Nan@@@Z 0000000180028950     security_context.obj
 0002:0000a960       $unwind$?_initializeContextStep@@YAXPEAVWorker@@@Z 0000000180028960     security_context.obj
 0002:0000a960       $unwind$?_initializeContext@@YAXPEAVWorker@@@Z 0000000180028960     security_context.obj
 0002:0000a968       $chain$7$?_initializeContext@@YAXPEAVWorker@@@Z 0000000180028968     security_context.obj
 0002:0000a998       $chain$8$?_initializeContext@@YAXPEAVWorker@@@Z 0000000180028998     security_context.obj
 0002:0000a9ac       $chain$9$?_initializeContext@@YAXPEAVWorker@@@Z 00000001800289ac     security_context.obj
 0002:0000a9bc       $unwind$?InitializeContext@SecurityContext@@SAXAEBV?$FunctionCallbackInfo@VValue@v8@@@Nan@@@Z 00000001800289bc     security_context.obj
 0002:0000a9cc       $chain$2$?InitializeContext@SecurityContext@@SAXAEBV?$FunctionCallbackInfo@VValue@v8@@@Nan@@@Z 00000001800289cc     security_context.obj
 0002:0000a9e8       $chain$3$?InitializeContext@SecurityContext@@SAXAEBV?$FunctionCallbackInfo@VValue@v8@@@Nan@@@Z 00000001800289e8     security_context.obj
 0002:0000a9f8       $unwind$?PayloadGetter@SecurityContext@@SAXV?$Local@VString@v8@@@v8@@AEBV?$PropertyCallbackInfo@VValue@v8@@@Nan@@@Z 00000001800289f8     security_context.obj
 0002:0000aa04       $chain$7$?_initializeContextStep@@YAXPEAVWorker@@@Z 0000000180028a04     security_context.obj
 0002:0000aa34       $chain$8$?_initializeContextStep@@YAXPEAVWorker@@@Z 0000000180028a34     security_context.obj
 0002:0000aa48       $chain$9$?_initializeContextStep@@YAXPEAVWorker@@@Z 0000000180028a48     security_context.obj
 0002:0000aa58       $unwind$?InitalizeStep@SecurityContext@@SAXAEBV?$FunctionCallbackInfo@VValue@v8@@@Nan@@@Z 0000000180028a58     security_context.obj
 0002:0000aa68       $chain$2$?InitalizeStep@SecurityContext@@SAXAEBV?$FunctionCallbackInfo@VValue@v8@@@Nan@@@Z 0000000180028a68     security_context.obj
 0002:0000aa84       $chain$3$?InitalizeStep@SecurityContext@@SAXAEBV?$FunctionCallbackInfo@VValue@v8@@@Nan@@@Z 0000000180028a84     security_context.obj
 0002:0000aa94       $unwind$__acrt_lowio_create_handle_array 0000000180028a94     libucrt:osfinfo.obj
 0002:0000aa94       $unwind$?_encryptMessage@@YAXPEAVWorker@@@Z 0000000180028a94     security_context.obj
 0002:0000aa94       $unwind$?setSBCS@@YAXPEAU__crt_multibyte_data@@@Z 0000000180028a94     libucrt:mbctype.obj
 0002:0000aa94       $unwind$?_queryContextAttributes@@YAXPEAVWorker@@@Z 0000000180028a94     security_context.obj
 0002:0000aa94       $unwind$??$ensure_buffer_is_big_enough@_W@formatting_buffer@__crt_stdio_output@@QEAA_N_K@Z 0000000180028a94     libucrt:output.obj
 0002:0000aa94       $unwind$__acrt_free_locale 0000000180028a94     libucrt:locale_refcounting.obj
 0002:0000aa94       $unwind$__scrt_dllmain_exception_filter 0000000180028a94     LIBCMT:utility.obj
 0002:0000aa94       $unwind$??$ensure_buffer_is_big_enough@D@formatting_buffer@__crt_stdio_output@@QEAA_N_K@Z 0000000180028a94     libucrt:output.obj
 0002:0000aa94       $unwind$_initterm          0000000180028a94     libucrt:initterm.obj
 0002:0000aa94       $unwind$??$common_xtox@K_W@@YAHKQEA_W_KI_N@Z 0000000180028a94     libucrt:xtoa.obj
 0002:0000aa94       $unwind$?Is_bad_exception_allowed@@YAEPEBU_s_ESTypeList@@@Z 0000000180028a94     libvcruntime:frame.obj
 0002:0000aa94       $unwind$__acrt_show_wide_message_box 0000000180028a94     libucrt:crtmbox.obj
 0002:0000aa94       $unwind$_seh_filter_exe    0000000180028a94     libucrt:exception_filter.obj
 0002:0000aa94       $unwind$_wassert           0000000180028a94     libucrt:assert.obj
 0002:0000aa94       $unwind$_recalloc_base     0000000180028a94     libucrt:recalloc.obj
 0002:0000aa94       $unwind$?GetHandlerSearchState@__FrameHandler3@@SAHPEA_KPEAU_xDISPATCHER_CONTEXT@@PEBU_s_FuncInfo@@@Z 0000000180028a94     libvcruntime:frame.obj
 0002:0000aaa8       $unwind$?EncryptMessage@SecurityContext@@SAXAEBV?$FunctionCallbackInfo@VValue@v8@@@Nan@@@Z 0000000180028aa8     security_context.obj
 0002:0000aaa8       $unwind$?DecryptMessage@SecurityContext@@SAXAEBV?$FunctionCallbackInfo@VValue@v8@@@Nan@@@Z 0000000180028aa8     security_context.obj
 0002:0000aab0       $chain$4$?EncryptMessage@SecurityContext@@SAXAEBV?$FunctionCallbackInfo@VValue@v8@@@Nan@@@Z 0000000180028ab0     security_context.obj
 0002:0000aad4       $chain$5$?EncryptMessage@SecurityContext@@SAXAEBV?$FunctionCallbackInfo@VValue@v8@@@Nan@@@Z 0000000180028ad4     security_context.obj
 0002:0000aae4       $unwind$?_decryptMessage@@YAXPEAVWorker@@@Z 0000000180028ae4     security_context.obj
 0002:0000aaf8       $chain$4$?DecryptMessage@SecurityContext@@SAXAEBV?$FunctionCallbackInfo@VValue@v8@@@Nan@@@Z 0000000180028af8     security_context.obj
 0002:0000ab1c       $chain$5$?DecryptMessage@SecurityContext@@SAXAEBV?$FunctionCallbackInfo@VValue@v8@@@Nan@@@Z 0000000180028b1c     security_context.obj
 0002:0000ab2c       $unwind$?_map_queryContextAttributes@@YA?AV?$Local@VValue@v8@@@v8@@PEAVWorker@@@Z 0000000180028b2c     security_context.obj
 0002:0000ab38       $chain$0$?_map_queryContextAttributes@@YA?AV?$Local@VValue@v8@@@v8@@PEAVWorker@@@Z 0000000180028b38     security_context.obj
 0002:0000ab4c       $chain$2$?_map_queryContextAttributes@@YA?AV?$Local@VValue@v8@@@v8@@PEAVWorker@@@Z 0000000180028b4c     security_context.obj
 0002:0000ab64       $chain$3$?_map_queryContextAttributes@@YA?AV?$Local@VValue@v8@@@v8@@PEAVWorker@@@Z 0000000180028b64     security_context.obj
 0002:0000ab74       $chain$4$?_map_queryContextAttributes@@YA?AV?$Local@VValue@v8@@@v8@@PEAVWorker@@@Z 0000000180028b74     security_context.obj
 0002:0000ab84       $unwind$?QueryContextAttributesA@SecurityContext@@SAXAEBV?$FunctionCallbackInfo@VValue@v8@@@Nan@@@Z 0000000180028b84     security_context.obj
 0002:0000ab8c       $chain$2$?QueryContextAttributesA@SecurityContext@@SAXAEBV?$FunctionCallbackInfo@VValue@v8@@@Nan@@@Z 0000000180028b8c     security_context.obj
 0002:0000aba8       $chain$4$?QueryContextAttributesA@SecurityContext@@SAXAEBV?$FunctionCallbackInfo@VValue@v8@@@Nan@@@Z 0000000180028ba8     security_context.obj
 0002:0000abc4       $chain$7$?QueryContextAttributesA@SecurityContext@@SAXAEBV?$FunctionCallbackInfo@VValue@v8@@@Nan@@@Z 0000000180028bc4     security_context.obj
 0002:0000abe0       $chain$8$?QueryContextAttributesA@SecurityContext@@SAXAEBV?$FunctionCallbackInfo@VValue@v8@@@Nan@@@Z 0000000180028be0     security_context.obj
 0002:0000abf0       $chain$9$?QueryContextAttributesA@SecurityContext@@SAXAEBV?$FunctionCallbackInfo@VValue@v8@@@Nan@@@Z 0000000180028bf0     security_context.obj
 0002:0000ac00       $unwind$?Initialize@SecurityContext@@SAXV?$Local@VObject@v8@@@v8@@@Z 0000000180028c00     security_context.obj
 0002:0000ac10       $unwind$?_authSSPIAquire@@YAXPEAVWorker@@@Z 0000000180028c10     security_credentials.obj
 0002:0000ac2c       $unwind$?Acquire@SecurityCredentials@@SAXAEBV?$FunctionCallbackInfo@VValue@v8@@@Nan@@@Z 0000000180028c2c     security_credentials.obj
 0002:0000ac3c       $chain$0$?Acquire@SecurityCredentials@@SAXAEBV?$FunctionCallbackInfo@VValue@v8@@@Nan@@@Z 0000000180028c3c     security_credentials.obj
 0002:0000ac50       $chain$2$?Acquire@SecurityCredentials@@SAXAEBV?$FunctionCallbackInfo@VValue@v8@@@Nan@@@Z 0000000180028c50     security_credentials.obj
 0002:0000ac68       $chain$3$?Acquire@SecurityCredentials@@SAXAEBV?$FunctionCallbackInfo@VValue@v8@@@Nan@@@Z 0000000180028c68     security_credentials.obj
 0002:0000ac7c       $chain$4$?Acquire@SecurityCredentials@@SAXAEBV?$FunctionCallbackInfo@VValue@v8@@@Nan@@@Z 0000000180028c7c     security_credentials.obj
 0002:0000ac8c       $unwind$?Initialize@SecurityCredentials@@SAXV?$Local@VObject@v8@@@v8@@@Z 0000000180028c8c     security_credentials.obj
 0002:0000ac9c       $chain$0$?After@SecurityCredentials@@CAXPEAUuv_work_s@@@Z 0000000180028c9c     security_credentials.obj
 0002:0000acb0       $chain$1$?After@SecurityCredentials@@CAXPEAUuv_work_s@@@Z 0000000180028cb0     security_credentials.obj
 0002:0000acc4       $chain$2$?After@SecurityCredentials@@CAXPEAUuv_work_s@@@Z 0000000180028cc4     security_credentials.obj
 0002:0000acd4       $chain$3$?After@SecurityCredentials@@CAXPEAUuv_work_s@@@Z 0000000180028cd4     security_credentials.obj
 0002:0000ace4       xdata                      0000000180028ce4     node:node.exe
 0002:0000acf0       $xdatasym                  0000000180028cf0     LIBCMT:_amdsecgs_.obj
 0002:0000acf4       $unwind$abort              0000000180028cf4     libucrt:abort.obj
 0002:0000acf4       $unwind$__vcrt_thread_detach 0000000180028cf4     libvcruntime:initialization.obj
 0002:0000acf4       $unwind$__vcrt_thread_attach 0000000180028cf4     libvcruntime:initialization.obj
 0002:0000acf4       $unwind$__acrt_update_thread_multibyte_data 0000000180028cf4     libucrt:mbctype.obj
 0002:0000acf4       $unwind$__vcrt_uninitialize 0000000180028cf4     libvcruntime:initialization.obj
 0002:0000acf4       $unwind$__vcrt_initialize  0000000180028cf4     libvcruntime:initialization.obj
 0002:0000acf4       $unwind$__acrt_DownlevelLocaleNameToLCID 0000000180028cf4     libucrt:lcidtoname_downlevel.obj
 0002:0000acf4       $unwind$?initialize_multibyte@@YAHXZ 0000000180028cf4     libucrt:multibyte_initializer.obj
 0002:0000acf4       $unwind$__vcrt_uninitialize_critical 0000000180028cf4     libvcruntime:initialization.obj
 0002:0000acf4       $unwind$__acrt_uninitialize_ptd 0000000180028cf4     libucrt:per_thread_data.obj
 0002:0000acf4       $unwind$?GetCurrentState@__FrameHandler3@@SAHPEA_KPEAU_xDISPATCHER_CONTEXT@@PEBU_s_FuncInfo@@@Z 0000000180028cf4     libvcruntime:ehstate.obj
 0002:0000acf4       $unwind$atexit             0000000180028cf4     LIBCMT:utility.obj
 0002:0000acf4       $unwind$_isatty            0000000180028cf4     libucrt:isatty.obj
 0002:0000acf4       $unwind$__acrt_initialize_ptd 0000000180028cf4     libucrt:per_thread_data.obj
 0002:0000acf4       $unwind$__acrt_initialize_multibyte 0000000180028cf4     libucrt:mbctype.obj
 0002:0000acf4       $unwind$_msize_base        0000000180028cf4     libucrt:msize.obj
 0002:0000acf4       $unwind$_stricmp           0000000180028cf4     libucrt:stricmp.obj
 0002:0000acf4       $unwind$uninitialize_allocated_io_buffers 0000000180028cf4     libucrt:initialization.obj
 0002:0000acf4       $unwind$_set_errno_from_matherr 0000000180028cf4     libucrt:fpexcept.obj
 0002:0000acf4       $unwind$?state_case_size@?$output_processor@_WV?$string_output_adapter@_W@__crt_stdio_output@@V?$standard_base@_WV?$string_output_adapter@_W@__crt_stdio_output@@@2@@__crt_stdio_output@@AEAA_NXZ 0000000180028cf4     libucrt:output.obj
 0002:0000acf4       $unwind$__dcrt_terminate_console_output 0000000180028cf4     libucrt:initcon.obj
 0002:0000acf4       $unwind$__scrt_initialize_default_local_stdio_options 0000000180028cf4     LIBCMT:default_local_stdio_options.obj
 0002:0000acf4       $unwind$__scrt_acquire_startup_lock 0000000180028cf4     LIBCMT:utility.obj
 0002:0000acf4       $unwind$__acrt_initialize_command_line 0000000180028cf4     libucrt:argv_data.obj
 0002:0000acf4       $unwind$__vcrt_initialize_ptd 0000000180028cf4     libvcruntime:per_thread_data.obj
 0002:0000acf4       $unwind$_set_error_mode    0000000180028cf4     libucrt:set_error_mode.obj
 0002:0000acf4       $unwind$tolower            0000000180028cf4     libucrt:tolower_toupper.obj
 0002:0000acf4       $unwind$__acrt_initialize_heap 0000000180028cf4     libucrt:heap_handle.obj
 0002:0000acf4       $unwind$uninitialize_environment 0000000180028cf4     libucrt:initialization.obj
 0002:0000acf4       $unwind$initialize_c       0000000180028cf4     libucrt:initialization.obj
 0002:0000acf4       $unwind$__vcrt_uninitialize_ptd 0000000180028cf4     libvcruntime:per_thread_data.obj
 0002:0000acf4       $unwind$?validate_stream_is_ansi_if_required@?$__acrt_stdio_char_traits@D@@SA_NQEAU_iobuf@@@Z 0000000180028cf4     libucrt:output.obj
 0002:0000acf4       $unwind$_statfp            0000000180028cf4     libucrt:fpctrl.obj
 0002:0000acf4       $unwind$_GetThrowImageBase 0000000180028cf4     libvcruntime:risctrnsctrl.obj
 0002:0000acf4       $unwind$_get_osfhandle     0000000180028cf4     libucrt:osfinfo.obj
 0002:0000acf4       $unwind$?__c32rtomb_utf8@__crt_mbstring@@YA_KPEAD_UPEAU_Mbstatet@@@Z 0000000180028cf4     libucrt:c32rtomb.obj
 0002:0000acf4       $unwind$__acrt_release_locale_ref 0000000180028cf4     libucrt:locale_refcounting.obj
 0002:0000acf4       $unwind$__vcrt_getptd      0000000180028cf4     libvcruntime:per_thread_data.obj
 0002:0000acf4       $unwind$__scrt_dllmain_before_initialize_c 0000000180028cf4     LIBCMT:utility.obj
 0002:0000acf4       $unwind$__acrt_thread_detach 0000000180028cf4     libucrt:initialization.obj
 0002:0000acf4       $unwind$__acrt_thread_attach 0000000180028cf4     libucrt:initialization.obj
 0002:0000acf4       $unwind$__report_rangecheckfailure 0000000180028cf4     LIBCMT:gs_report.obj
 0002:0000acf4       $unwind$__acrt_uninitialize_critical 0000000180028cf4     libucrt:initialization.obj
 0002:0000acf4       $unwind$__acrt_uninitialize 0000000180028cf4     libucrt:initialization.obj
 0002:0000acf4       $unwind$?DloadReleaseSectionWriteAccess@@YAXXZ 0000000180028cf4     DelayImp:delayhlp.obj
 0002:0000acf4       $unwind$__pctype_func      0000000180028cf4     libucrt:ctype.obj
 0002:0000acf4       $unwind$_invoke_watson     0000000180028cf4     libucrt:invalid_parameter.obj
 0002:0000acf4       $unwind$?state_case_size@?$output_processor@_WV?$stream_output_adapter@_W@__crt_stdio_output@@V?$standard_base@_WV?$stream_output_adapter@_W@__crt_stdio_output@@@2@@__crt_stdio_output@@AEAA_NXZ 0000000180028cf4     libucrt:output.obj
 0002:0000acf4       $unwind$__FrameUnwindFilter 0000000180028cf4     libvcruntime:ehhelpers.obj
 0002:0000acf4       $unwind$__vcrt_freefls     0000000180028cf4     libvcruntime:per_thread_data.obj
 0002:0000acf4       $unwind$??$uninitialize_environment_internal@_W@@YAXAEAPEAPEA_W@Z 0000000180028cf4     libucrt:environment_initialization.obj
 0002:0000acf4       $unwind$_fileno            0000000180028cf4     libucrt:fileno.obj
 0002:0000acf4       $unwind$_errno             0000000180028cf4     libucrt:errno.obj
 0002:0000acf4       $unwind$__scrt_dllmain_after_initialize_c 0000000180028cf4     LIBCMT:utility.obj
 0002:0000acf4       $unwind$__doserrno         0000000180028cf4     libucrt:errno.obj
 0002:0000acf4       $unwind$__scrt_dllmain_uninitialize_c 0000000180028cf4     LIBCMT:utility.obj
 0002:0000acf4       $unwind$?dllmain_crt_dispatch@@YAHQEAUHINSTANCE__@@KQEAX@Z 0000000180028cf4     LIBCMT:dll_dllmain.obj
 0002:0000acf4       $unwind$__scrt_dllmain_uninitialize_critical 0000000180028cf4     LIBCMT:utility.obj
 0002:0000acf4       $unwind$__scrt_dllmain_crt_thread_attach 0000000180028cf4     LIBCMT:utility.obj
 0002:0000acf4       $unwind$__scrt_dllmain_crt_thread_detach 0000000180028cf4     LIBCMT:utility.obj
 0002:0000acf4       $unwind$?state_case_size@?$output_processor@DV?$stream_output_adapter@D@__crt_stdio_output@@V?$standard_base@DV?$stream_output_adapter@D@__crt_stdio_output@@@2@@__crt_stdio_output@@AEAA_NXZ 0000000180028cf4     libucrt:output.obj
 0002:0000acf4       $unwind$??$uninitialize_environment_internal@D@@YAXAEAPEAPEAD@Z 0000000180028cf4     libucrt:environment_initialization.obj
 0002:0000acf4       $unwind$__dcrt_uninitialize_environments_nolock 0000000180028cf4     libucrt:environment_initialization.obj
 0002:0000acf4       $unwind$__GSHandlerCheck   0000000180028cf4     LIBCMT:_gshandler_.obj
 0002:0000acf4       $unwind$_GetImageBase      0000000180028cf4     libvcruntime:risctrnsctrl.obj
 0002:0000acfc       $unwind$__scrt_is_nonwritable_in_current_image 0000000180028cfc     LIBCMT:utility.obj
 0002:0000ad1c       $unwind$__scrt_is_nonwritable_in_current_image$filt$0 0000000180028d1c     LIBCMT:utility.obj
 0002:0000ad24       $unwind$?getSystemCP@@YAHH@Z 0000000180028d24     libucrt:mbctype.obj
 0002:0000ad24       $unwind$_isleadbyte_l      0000000180028d24     libucrt:_wctype.obj
 0002:0000ad24       $unwind$isdigit            0000000180028d24     libucrt:_ctype.obj
 0002:0000ad24       $unwind$__scrt_initialize_onexit_tables 0000000180028d24     LIBCMT:utility.obj
 0002:0000ad24       $unwind$__dcrt_lowio_ensure_console_output_initialized 0000000180028d24     libucrt:initcon.obj
 0002:0000ad2c       $unwind$?dllmain_crt_process_attach@@YAHQEAUHINSTANCE__@@QEAX@Z 0000000180028d2c     LIBCMT:dll_dllmain.obj
 0002:0000ad68       $unwind$?fin$0@?0???$?RV<lambda_d80eeec6fff315bfe5c115232f3240e3>@@AEAV<lambda_6e4b09c48022b2350581041d5f6b0c4c>@@V<lambda_2358e3775559c9db80273638284d5e45>@@@?$__crt_seh_guarded_call@X@@QEAAX$$QEAV<lambda_d80eeec6fff315bfe5c115232f3240e3>@@AEAV<lambda_6e4b09c48022b2350581041d5f6b0c4c>@@$$QEAV<lambda_2358e3775559c9db80273638284d5e45>@@@Z@4HA 0000000180028d68     libucrt:exit.obj
 0002:0000ad68       $unwind$?filt$0@?0???R<lambda_6e4b09c48022b2350581041d5f6b0c4c>@@QEBA@XZ@4HA 0000000180028d68     libucrt:exit.obj
 0002:0000ad68       $unwind$_write$fin$0       0000000180028d68     libucrt:write.obj
 0002:0000ad68       $unwind$__acrt_lowio_ensure_fh_exists$fin$0 0000000180028d68     libucrt:osfinfo.obj
 0002:0000ad68       $unwind$?fin$0@?0???$?RV<lambda_410d79af7f07d98d83a3f525b3859a53>@@AEAV<lambda_3e16ef9562a7dcce91392c22ab16ea36>@@V<lambda_38119f0e861e05405d8a144b9b982f0a>@@@?$__crt_seh_guarded_call@X@@QEAAX$$QEAV<lambda_410d79af7f07d98d83a3f525b3859a53>@@AEAV<lambda_3e16ef9562a7dcce91392c22ab16ea36>@@$$QEAV<lambda_38119f0e861e05405d8a144b9b982f0a>@@@Z@4HA 0000000180028d68     libucrt:wsetlocale.obj
 0002:0000ad68       $unwind$?fin$0@?0???$?RV<lambda_751a882b2c74d4b022dec766aa51a29a>@@AEAV<lambda_628dfdc04ba53c8bfc02c9951375f3f5>@@V<lambda_f6c7be5f7998530c34de24c7437d6b54>@@@?$__crt_seh_guarded_call@H@@QEAAH$$QEAV<lambda_751a882b2c74d4b022dec766aa51a29a>@@AEAV<lambda_628dfdc04ba53c8bfc02c9951375f3f5>@@$$QEAV<lambda_f6c7be5f7998530c34de24c7437d6b54>@@@Z@4HA 0000000180028d68     libucrt:close.obj
 0002:0000ad68       $unwind$?fin$0@?0???$?RV<lambda_2d41944a1d46af3157314b8a01080d33>@@AEAV<lambda_8f455de75cd7d7f24b4096f044d8b9e6>@@V<lambda_aa500f224e6afead328df44964fe2772>@@@?$__crt_seh_guarded_call@X@@QEAAX$$QEAV<lambda_2d41944a1d46af3157314b8a01080d33>@@AEAV<lambda_8f455de75cd7d7f24b4096f044d8b9e6>@@$$QEAV<lambda_aa500f224e6afead328df44964fe2772>@@@Z@4HA 0000000180028d68     libucrt:per_thread_data.obj
 0002:0000ad68       $unwind$?fin$0@?0???$?RV<lambda_a37b2b86f63e897a80ea819b0eb08c01>@@AEAV<lambda_38ce7e780aa69e748d6df282ebc68efe>@@V<lambda_99fb1378e971ab6e7edea83e3a7a83a2>@@@?$__crt_seh_guarded_call@H@@QEAAH$$QEAV<lambda_a37b2b86f63e897a80ea819b0eb08c01>@@AEAV<lambda_38ce7e780aa69e748d6df282ebc68efe>@@$$QEAV<lambda_99fb1378e971ab6e7edea83e3a7a83a2>@@@Z@4HA 0000000180028d68     libucrt:commit.obj
 0002:0000ad68       $unwind$_ctrlfp$filt$0     0000000180028d68     libucrt:fpctrl.obj
 0002:0000ad68       $unwind$?fin$0@?0???$?RV<lambda_842d9ff0dc9ef11c61343bbaebe7f885>@@AEAV<lambda_c5860995281e5c4ce005b3de8f5874ee>@@V<lambda_d90129c13df834fdcbf8d2b88dafcf2d>@@@?$__crt_seh_guarded_call@X@@QEAAX$$QEAV<lambda_842d9ff0dc9ef11c61343bbaebe7f885>@@AEAV<lambda_c5860995281e5c4ce005b3de8f5874ee>@@$$QEAV<lambda_d90129c13df834fdcbf8d2b88dafcf2d>@@@Z@4HA 0000000180028d68     libucrt:fflush.obj
 0002:0000ad68       $unwind$?fin$0@?0???$?RV<lambda_f2e299630e499de9f9a165e60fcd3db5>@@AEAV<lambda_2ae9d31cdba2644fcbeaf08da7c24588>@@V<lambda_40d01ff24d0e7b3814fdbdcee8eab3c7>@@@?$__crt_seh_guarded_call@X@@QEAAX$$QEAV<lambda_f2e299630e499de9f9a165e60fcd3db5>@@AEAV<lambda_2ae9d31cdba2644fcbeaf08da7c24588>@@$$QEAV<lambda_40d01ff24d0e7b3814fdbdcee8eab3c7>@@@Z@4HA 0000000180028d68     libucrt:per_thread_data.obj
 0002:0000ad68       $unwind$?fin$0@?0??dllmain_crt_process_detach@@YAH_N@Z@4HA 0000000180028d68     LIBCMT:dll_dllmain.obj
 0002:0000ad68       $unwind$_query_new_handler$fin$0 0000000180028d68     libucrt:new_handler.obj
 0002:0000ad68       $unwind$_IsNonwritableInCurrentImage$filt$0 0000000180028d68     LIBCMT:pesect.obj
 0002:0000ad68       $unwind$?fin$0@?0???$?RV<lambda_886d6c58226a84441f68b9f2b8217b83>@@AEAV<lambda_ab61a845afdef5b7c387490eaf3616ee>@@V<lambda_f7f22ab5edc0698d5f6905b0d3f44752>@@@?$__crt_seh_guarded_call@X@@QEAAX$$QEAV<lambda_886d6c58226a84441f68b9f2b8217b83>@@AEAV<lambda_ab61a845afdef5b7c387490eaf3616ee>@@$$QEAV<lambda_f7f22ab5edc0698d5f6905b0d3f44752>@@@Z@4HA 0000000180028d68     libucrt:fflush.obj
 0002:0000ad68       $unwind$?fin$0@?0???$common_lseek@_J@@YA_JH_JH@Z@4HA 0000000180028d68     libucrt:lseek.obj
 0002:0000ad68       $unwind$fclose$fin$0       0000000180028d68     libucrt:fclose.obj
 0002:0000ad68       $unwind$?fin$0@?0???$?RV<lambda_efdfa57d1f175319df784efa44bb7b81>@@AEAV<lambda_5f0a4c1567f8adc6734073e5d1e1b35c>@@V<lambda_2e8a7d3640ea6ccb4c2413664c2db6fd>@@@?$__crt_seh_guarded_call@X@@QEAAX$$QEAV<lambda_efdfa57d1f175319df784efa44bb7b81>@@AEAV<lambda_5f0a4c1567f8adc6734073e5d1e1b35c>@@$$QEAV<lambda_2e8a7d3640ea6ccb4c2413664c2db6fd>@@@Z@4HA 0000000180028d68     libucrt:mbctype.obj
 0002:0000ad68       $unwind$?fin$0@?0???$?RV<lambda_0ae27a3a962d80f24befdcbee591983d>@@AEAV<lambda_8d0ee55de4b1038c4002e0adecdf1839>@@V<lambda_dc504788e8f1664fe9b84e20bfb512f2>@@@?$__crt_seh_guarded_call@X@@QEAAX$$QEAV<lambda_0ae27a3a962d80f24befdcbee591983d>@@AEAV<lambda_8d0ee55de4b1038c4002e0adecdf1839>@@$$QEAV<lambda_dc504788e8f1664fe9b84e20bfb512f2>@@@Z@4HA 0000000180028d68     libucrt:per_thread_data.obj
 0002:0000ad68       $unwind$__acrt_update_thread_locale_data$fin$0 0000000180028d68     libucrt:locale_refcounting.obj
 0002:0000ad68       $unwind$?fin$0@?0???$?RV<lambda_0d412022a4b28cc8a401ea49574e8ae6>@@AEAV<lambda_a775ed57af18ba8e4d5dc780aa9068fe>@@V<lambda_975a71a6baa488a08f4e15f6b0339b9e>@@@?$__crt_seh_guarded_call@H@@QEAAH$$QEAV<lambda_0d412022a4b28cc8a401ea49574e8ae6>@@AEAV<lambda_a775ed57af18ba8e4d5dc780aa9068fe>@@$$QEAV<lambda_975a71a6baa488a08f4e15f6b0339b9e>@@@Z@4HA 0000000180028d68     libucrt:output.obj
 0002:0000ad68       $unwind$raise$fin$0        0000000180028d68     libucrt:signal.obj
 0002:0000ad68       $unwind$?fin$0@?0???$?RV<lambda_8369fcb7c4df1e85de37618bd2b85f07>@@AEAV<lambda_a10e4b102d4a2c3aac6f4f48bbdf488f>@@V<lambda_5b7707bd6d7a0c4713179f36c7fd995d>@@@?$__crt_seh_guarded_call@H@@QEAAH$$QEAV<lambda_8369fcb7c4df1e85de37618bd2b85f07>@@AEAV<lambda_a10e4b102d4a2c3aac6f4f48bbdf488f>@@$$QEAV<lambda_5b7707bd6d7a0c4713179f36c7fd995d>@@@Z@4HA 0000000180028d68     libucrt:onexit.obj
 0002:0000ad68       $unwind$__DestructExceptionObject$filt$0 0000000180028d68     libvcruntime:ehhelpers.obj
 0002:0000ad68       $unwind$?fin$0@?0???$?RV<lambda_7777bce6b2f8c936911f934f8298dc43>@@AEAV<lambda_f03950bc5685219e0bcd2087efbe011e>@@V<lambda_3883c3dff614d5e0c5f61bb1ac94921c>@@@?$__crt_seh_guarded_call@H@@QEAAH$$QEAV<lambda_7777bce6b2f8c936911f934f8298dc43>@@AEAV<lambda_f03950bc5685219e0bcd2087efbe011e>@@$$QEAV<lambda_3883c3dff614d5e0c5f61bb1ac94921c>@@@Z@4HA 0000000180028d68     libucrt:onexit.obj
 0002:0000ad68       $unwind$?fin$0@?0???$?RV<lambda_84ec643ea9557e2f7dc01bb0e9624395>@@AEAV<lambda_ca71763b3c0644891230e4f79ea54fa6>@@V<lambda_439a761618c59b0600e24586724d733b>@@@?$__crt_seh_guarded_call@H@@QEAAH$$QEAV<lambda_84ec643ea9557e2f7dc01bb0e9624395>@@AEAV<lambda_ca71763b3c0644891230e4f79ea54fa6>@@$$QEAV<lambda_439a761618c59b0600e24586724d733b>@@@Z@4HA 0000000180028d68     libucrt:setvbuf.obj
 0002:0000ad68       $unwind$?fin$0@?0???$?RV<lambda_a62c933ada0517137acf5807a1eeac1f>@@AEAV<lambda_a31071773b9a94e445cbd5d04ef99106>@@V<lambda_56065050dbf3ada7e59a83db45153de3>@@@?$__crt_seh_guarded_call@H@@QEAAH$$QEAV<lambda_a62c933ada0517137acf5807a1eeac1f>@@AEAV<lambda_a31071773b9a94e445cbd5d04ef99106>@@$$QEAV<lambda_56065050dbf3ada7e59a83db45153de3>@@@Z@4HA 0000000180028d68     libucrt:output.obj
 0002:0000ad68       $unwind$?fin$0@?0???$?RV<lambda_450d765d439847d4c735a33c368b5fc0>@@AEAV<lambda_44731a7d0e6d81c3e6aa82d741081786>@@V<lambda_601a2a7da3b7a96e9554ac7215c4b07c>@@@?$__crt_seh_guarded_call@P6AXH@Z@@QEAAP6AXH@Z$$QEAV<lambda_450d765d439847d4c735a33c368b5fc0>@@AEAV<lambda_44731a7d0e6d81c3e6aa82d741081786>@@$$QEAV<lambda_601a2a7da3b7a96e9554ac7215c4b07c>@@@Z@4HA 0000000180028d68     libucrt:signal.obj
 0002:0000ad68       $unwind$__acrt_initialize_lowio$fin$0 0000000180028d68     libucrt:ioinit.obj
 0002:0000ad68       $unwind$?fin$0@?0??update_thread_multibyte_data_internal@@YAPEAU__crt_multibyte_data@@QEAU__acrt_ptd@@QEAPEAU1@@Z@4HA 0000000180028d68     libucrt:mbctype.obj
 0002:0000ad68       $unwind$?fin$0@?0??dllmain_crt_process_attach@@YAHQEAUHINSTANCE__@@QEAX@Z@4HA 0000000180028d68     LIBCMT:dll_dllmain.obj
 0002:0000ad68       $unwind$?filt$0@?0??FrameUnwindToState@__FrameHandler3@@SAXPEA_KPEAU_xDISPATCHER_CONTEXT@@PEBU_s_FuncInfo@@H@Z@4HA 0000000180028d68     libvcruntime:frame.obj
 0002:0000ad68       $unwind$?fin$1@?0??FrameUnwindToState@__FrameHandler3@@SAXPEA_KPEAU_xDISPATCHER_CONTEXT@@PEBU_s_FuncInfo@@H@Z@4HA 0000000180028d68     libvcruntime:frame.obj
 0002:0000ad68       $unwind$?fin$0@?0???$?RV<lambda_c376a267cfb53b6959b3b692ec76b120>@@AEAV<lambda_9a32fed5bf61b6b509b2d3f6003082a1>@@V<lambda_572fbb9fa0ab338edf41edfd4b5fcc8d>@@@?$__crt_seh_guarded_call@H@@QEAAH$$QEAV<lambda_c376a267cfb53b6959b3b692ec76b120>@@AEAV<lambda_9a32fed5bf61b6b509b2d3f6003082a1>@@$$QEAV<lambda_572fbb9fa0ab338edf41edfd4b5fcc8d>@@@Z@4HA 0000000180028d68     libucrt:fflush.obj
 0002:0000ad68       $unwind$_fcloseall$fin$0   0000000180028d68     libucrt:closeall.obj
 0002:0000ad68       $unwind$?filt$0@?0??CxxCallCatchBlock@__FrameHandler3@@SAPEAXPEAU_EXCEPTION_RECORD@@@Z@4HA 0000000180028d68     libvcruntime:frame.obj
 0002:0000ad68       $unwind$?fin$0@?0???$?RV<lambda_aa87e3671a710a21b5dc78c0bdf72e11>@@AEAV<lambda_92619d2358a28f41a33ba319515a20b9>@@V<lambda_6992ecaafeb10aed2b74cb1fae11a551>@@@?$__crt_seh_guarded_call@X@@QEAAX$$QEAV<lambda_aa87e3671a710a21b5dc78c0bdf72e11>@@AEAV<lambda_92619d2358a28f41a33ba319515a20b9>@@$$QEAV<lambda_6992ecaafeb10aed2b74cb1fae11a551>@@@Z@4HA 0000000180028d68     libucrt:per_thread_data.obj
 0002:0000ad70       $unwind$?dllmain_crt_process_detach@@YAH_N@Z 0000000180028d70     LIBCMT:dll_dllmain.obj
 0002:0000ada8       $unwind$?dllmain_dispatch@@YAHQEAUHINSTANCE__@@KQEAX@Z 0000000180028da8     LIBCMT:dll_dllmain.obj
 0002:0000add0       $unwind$?filt$0@?0??dllmain_dispatch@@YAHQEAUHINSTANCE__@@KQEAX@Z@4HA 0000000180028dd0     LIBCMT:dll_dllmain.obj
 0002:0000add8       $unwind$__report_securityfailure 0000000180028dd8     LIBCMT:gs_report.obj
 0002:0000ade0       $unwind$__report_gsfailure 0000000180028de0     LIBCMT:gs_report.obj
 0002:0000ade8       $unwind$capture_current_context 0000000180028de8     LIBCMT:gs_report.obj
 0002:0000adf4       $unwind$capture_previous_context 0000000180028df4     LIBCMT:gs_report.obj
 0002:0000ae00       $unwind$_raise_exc         0000000180028e00     libucrt:fpexcept.obj
 0002:0000ae00       $unwind$?__scrt_throw_std_bad_array_new_length@@YAXXZ 0000000180028e00     LIBCMT:throw_bad_alloc.obj
 0002:0000ae00       $unwind$?__scrt_throw_std_bad_alloc@@YAXXZ 0000000180028e00     LIBCMT:throw_bad_alloc.obj
 0002:0000ae08       $unwind$__isa_available_init 0000000180028e08     LIBCMT:_cpu_disp_.obj
 0002:0000ae1c       $unwind$__scrt_fastfail    0000000180028e1c     LIBCMT:utility_desktop.obj
 0002:0000ae2c       $unwind$__security_init_cookie 0000000180028e2c     LIBCMT:gs_support.obj
 0002:0000ae38       $xdatasym                  0000000180028e38     LIBCMT:_guard_dispatch_.obj
 0002:0000ae3c       $unwind$__C_specific_handler 0000000180028e3c     libvcruntime:_riscchandler_.obj
 0002:0000ae58       $unwind$?initialize_stdio_handles_nolock@@YAXXZ 0000000180028e58     libucrt:ioinit.obj
 0002:0000ae58       $unwind$_free_osfhnd       0000000180028e58     libucrt:osfinfo.obj
 0002:0000ae58       $unwind$__std_exception_copy 0000000180028e58     libvcruntime:std_exception.obj
 0002:0000ae6c       $unwind$_CxxThrowException 0000000180028e6c     libvcruntime:throw.obj
 0002:0000ae80       $xdatasym                  0000000180028e80     libvcruntime:memset.obj
 0002:0000ae90       $unwind$__vcrt_initialize_winapi_thunks 0000000180028e90     libvcruntime:winapi_downlevel.obj
 0002:0000ae90       $unwind$__acrt_initialize_winapi_thunks 0000000180028e90     libucrt:winapi_thunks.obj
 0002:0000ae98       $unwind$__acrt_stdio_end_temporary_buffering_nolock 0000000180028e98     libucrt:_sftbuf.obj
 0002:0000ae98       $unwind$__vcrt_uninitialize_winapi_thunks 0000000180028e98     libvcruntime:winapi_downlevel.obj
 0002:0000aea0       $unwind$??R<lambda_f03950bc5685219e0bcd2087efbe011e>@@QEBAHXZ 0000000180028ea0     libucrt:onexit.obj
 0002:0000aea0       $unwind$?try_get_function@@YAPEAXW4function_id@?A0x391cf84c@@QEBDQEBW4module_id@2@2@Z 0000000180028ea0     libucrt:winapi_thunks.obj
 0002:0000aea0       $unwind$?try_get_function@@YAPEAXW4function_id@?A0xcc2f1bd3@@QEBDQEBW4module_id@2@2@Z 0000000180028ea0     libvcruntime:winapi_downlevel.obj
 0002:0000aea0       $unwind$?IsInExceptionSpec@@YAEPEAUEHExceptionRecord@@PEBU_s_ESTypeList@@@Z 0000000180028ea0     libvcruntime:frame.obj
 0002:0000aec0       $xdatasym                  0000000180028ec0     libvcruntime:_notify_.obj
 0002:0000aecc       $unwind$__DestructExceptionObject 0000000180028ecc     libvcruntime:ehhelpers.obj
 0002:0000aeec       $unwind$?GetEstablisherFrame@__FrameHandler3@@SAPEA_KPEA_KPEAU_xDISPATCHER_CONTEXT@@PEBU_s_FuncInfo@@0@Z 0000000180028eec     libvcruntime:risctrnsctrl.obj
 0002:0000af04       $unwind$?UnwindNestedFrames@__FrameHandler3@@SAXPEA_KPEAUEHExceptionRecord@@PEAU_CONTEXT@@0PEAXPEBU_s_FuncInfo@@HHPEBU_s_HandlerType@@PEAU_xDISPATCHER_CONTEXT@@E@Z 0000000180028f04     libvcruntime:risctrnsctrl.obj
 0002:0000af18       $unwind$?GetRangeOfTrysToCheck@__FrameHandler3@@SA?AU?$pair@Viterator@TryBlockMap@__FrameHandler3@@V123@@std@@AEAVTryBlockMap@1@HH@Z 0000000180028f18     libvcruntime:risctrnsctrl.obj
 0002:0000af30       $unwind$__CxxFrameHandler3 0000000180028f30     libvcruntime:risctrnsctrl.obj
 0002:0000af40       $unwind$??$_CallSETranslator@V__FrameHandler3@@@@YAHPEAUEHExceptionRecord@@PEA_KPEAU_CONTEXT@@PEAU_xDISPATCHER_CONTEXT@@PEBU_s_FuncInfo@@K1@Z 0000000180028f40     libvcruntime:risctrnsctrl.obj
 0002:0000af60       $unwind$?filt$0@?0???$_CallSETranslator@V__FrameHandler3@@@@YAHPEAUEHExceptionRecord@@PEA_KPEAU_CONTEXT@@PEAU_xDISPATCHER_CONTEXT@@PEBU_s_FuncInfo@@K1@Z@4HA 0000000180028f60     libvcruntime:risctrnsctrl.obj
 0002:0000af70       $xdatasym                  0000000180028f70     libvcruntime:memcpy.obj
 0002:0000af80       $unwind$?FrameUnwindToState@__FrameHandler3@@SAXPEA_KPEAU_xDISPATCHER_CONTEXT@@PEBU_s_FuncInfo@@H@Z 0000000180028f80     libvcruntime:frame.obj
 0002:0000afcc       $unwind$?CxxCallCatchBlock@__FrameHandler3@@SAPEAXPEAU_EXCEPTION_RECORD@@@Z 0000000180028fcc     libvcruntime:frame.obj
 0002:0000b008       $unwind$?fin$1@?0??CxxCallCatchBlock@__FrameHandler3@@SAPEAXPEAU_EXCEPTION_RECORD@@@Z@4HA 0000000180029008     libvcruntime:frame.obj
 0002:0000b014       $unwind$??$__InternalCxxFrameHandler@V__FrameHandler3@@@@YA?AW4_EXCEPTION_DISPOSITION@@PEAUEHExceptionRecord@@PEA_KPEAU_CONTEXT@@PEAU_xDISPATCHER_CONTEXT@@PEBU_s_FuncInfo@@H1E@Z 0000000180029014     libvcruntime:frame.obj
 0002:0000b02c       $unwind$__acrt_initialize_stdio 000000018002902c     libucrt:_file.obj
 0002:0000b02c       $unwind$??$TypeMatchHelper@$$CBU_s_HandlerType@@@@YAHPEBU_s_HandlerType@@PEBU_s_CatchableType@@PEBU_s_ThrowInfo@@@Z 000000018002902c     libvcruntime:frame.obj
 0002:0000b02c       $unwind$__GSHandlerCheck_EH 000000018002902c     LIBCMT:gshandlereh.obj
 0002:0000b044       $unwind$??$BuildCatchObjectHelperInternal@$$CBU_s_HandlerType@@@@YAHPEAUEHExceptionRecord@@PEAXPEBU_s_HandlerType@@PEBU_s_CatchableType@@@Z 0000000180029044     libvcruntime:frame.obj
 0002:0000b084       $unwind$??$BuildCatchObjectInternal@$$CBU_s_HandlerType@@@@YAXPEAUEHExceptionRecord@@PEAXPEBU_s_HandlerType@@PEBU_s_CatchableType@@@Z 0000000180029084     libvcruntime:frame.obj
 0002:0000b0b0       $unwind$??$FindHandler@V__FrameHandler3@@@@YAXPEAUEHExceptionRecord@@PEA_KPEAU_CONTEXT@@PEAU_xDISPATCHER_CONTEXT@@PEBU_s_FuncInfo@@EH1@Z 00000001800290b0     libvcruntime:frame.obj
 0002:0000b0cc       $unwind$??$CatchIt@V__FrameHandler3@@@@YAXPEAUEHExceptionRecord@@PEA_KPEAU_CONTEXT@@PEAU_xDISPATCHER_CONTEXT@@PEBU_s_FuncInfo@@PEBU_s_HandlerType@@PEBU_s_CatchableType@@PEBU_s_TryBlockMapEntry@@H1EE@Z 00000001800290cc     libvcruntime:frame.obj
 0002:0000b0e4       $unwind$??$FindHandlerForForeignException@V__FrameHandler3@@@@YAXPEAUEHExceptionRecord@@PEA_KPEAU_CONTEXT@@PEAU_xDISPATCHER_CONTEXT@@PEBU_s_FuncInfo@@HH1@Z 00000001800290e4     libvcruntime:frame.obj
 0002:0000b100       $xdatasym                  0000000180029100     libvcruntime:handlers.obj
 0002:0000b110       $unwind$fwprintf           0000000180029110     libucrt:assert.obj
 0002:0000b11c       $unwind$swprintf           000000018002911c     libucrt:assert.obj
 0002:0000b12c       $unwind$??$common_assert_to_stderr@_W@@YAXQEB_W0I@Z 000000018002912c     libucrt:assert.obj
 0002:0000b148       $unwind$??$common_assert_to_message_box@_W@@YAXQEB_W0IQEAX@Z 0000000180029148     libucrt:assert.obj
 0002:0000b164       $unwind$??$common_assert_to_message_box_build_string@_W@@YAXQEA_W_KQEB_W2IQEAX@Z 0000000180029164     libucrt:assert.obj
 0002:0000b184       $unwind$__stdio_common_vfwprintf 0000000180029184     libucrt:output.obj
 0002:0000b184       $unwind$__stdio_common_vfprintf 0000000180029184     libucrt:output.obj
 0002:0000b18c       $unwind$??$common_vsprintf@Vstandard_base@__crt_stdio_output@@_W@@YAH_KQEA_W0QEB_WQEAU__crt_locale_pointers@@QEAD@Z 000000018002918c     libucrt:output.obj
 0002:0000b1ac       $unwind$?write_string_impl@?$output_adapter_common@_WV?$stream_output_adapter@_W@__crt_stdio_output@@@__crt_stdio_output@@IEBAXQEB_WHQEAHAEAV__crt_deferred_errno_cache@@@Z 00000001800291ac     libucrt:output.obj
 0002:0000b1ac       $unwind$??$parse_command_line@D@@YAXPEADPEAPEAD0PEA_K2@Z 00000001800291ac     libucrt:argv_parsing.obj
 0002:0000b1ac       $unwind$?write_string_impl@?$output_adapter_common@DV?$stream_output_adapter@D@__crt_stdio_output@@@__crt_stdio_output@@IEBAXQEBDHQEAHAEAV__crt_deferred_errno_cache@@@Z 00000001800291ac     libucrt:output.obj
 0002:0000b1ac       $unwind$??R<lambda_a10e4b102d4a2c3aac6f4f48bbdf488f>@@QEBAHXZ 00000001800291ac     libucrt:onexit.obj
 0002:0000b1c8       $unwind$?process@?$output_processor@DV?$stream_output_adapter@D@__crt_stdio_output@@V?$standard_base@DV?$stream_output_adapter@D@__crt_stdio_output@@@2@@__crt_stdio_output@@QEAAHXZ 00000001800291c8     libucrt:output.obj
 0002:0000b1d8       $unwind$?process@?$output_processor@_WV?$stream_output_adapter@_W@__crt_stdio_output@@V?$standard_base@_WV?$stream_output_adapter@_W@__crt_stdio_output@@@2@@__crt_stdio_output@@QEAAHXZ 00000001800291d8     libucrt:output.obj
 0002:0000b1d8       $unwind$?parse_int_from_format_string@?$output_processor@DV?$stream_output_adapter@D@__crt_stdio_output@@V?$standard_base@DV?$stream_output_adapter@D@__crt_stdio_output@@@2@@__crt_stdio_output@@AEAA_NQEAH@Z 00000001800291d8     libucrt:output.obj
 0002:0000b1d8       $unwind$?process@?$output_processor@_WV?$string_output_adapter@_W@__crt_stdio_output@@V?$standard_base@_WV?$string_output_adapter@_W@__crt_stdio_output@@@2@@__crt_stdio_output@@QEAAHXZ 00000001800291d8     libucrt:output.obj
 0002:0000b1ec       $unwind$?state_case_type@?$output_processor@DV?$stream_output_adapter@D@__crt_stdio_output@@V?$standard_base@DV?$stream_output_adapter@D@__crt_stdio_output@@@2@@__crt_stdio_output@@AEAA_NXZ 00000001800291ec     libucrt:output.obj
 0002:0000b204       $unwind$?type_case_a@?$output_processor@DV?$stream_output_adapter@D@__crt_stdio_output@@V?$standard_base@DV?$stream_output_adapter@D@__crt_stdio_output@@@2@@__crt_stdio_output@@AEAA_NXZ 0000000180029204     libucrt:output.obj
 0002:0000b210       $unwind$?type_case_integer@?$output_processor@DV?$stream_output_adapter@D@__crt_stdio_output@@V?$standard_base@DV?$stream_output_adapter@D@__crt_stdio_output@@@2@@__crt_stdio_output@@AEAA_NI_N@Z 0000000180029210     libucrt:output.obj
 0002:0000b210       $unwind$?type_case_integer@?$output_processor@_WV?$stream_output_adapter@_W@__crt_stdio_output@@V?$standard_base@_WV?$stream_output_adapter@_W@__crt_stdio_output@@@2@@__crt_stdio_output@@AEAA_NI_N@Z 0000000180029210     libucrt:output.obj
 0002:0000b210       $unwind$?type_case_integer@?$output_processor@_WV?$string_output_adapter@_W@__crt_stdio_output@@V?$standard_base@_WV?$string_output_adapter@_W@__crt_stdio_output@@@2@@__crt_stdio_output@@AEAA_NI_N@Z 0000000180029210     libucrt:output.obj
 0002:0000b228       $unwind$?write_stored_string_tchar@?$output_processor@DV?$stream_output_adapter@D@__crt_stdio_output@@V?$standard_base@DV?$stream_output_adapter@D@__crt_stdio_output@@@2@@__crt_stdio_output@@AEAA_ND@Z 0000000180029228     libucrt:output.obj
 0002:0000b240       $unwind$??R<lambda_a775ed57af18ba8e4d5dc780aa9068fe>@@QEBAHXZ 0000000180029240     libucrt:output.obj
 0002:0000b240       $unwind$??R<lambda_a31071773b9a94e445cbd5d04ef99106>@@QEBAHXZ 0000000180029240     libucrt:output.obj
 0002:0000b260       $unwind$?parse_int_from_format_string@?$output_processor@_WV?$stream_output_adapter@_W@__crt_stdio_output@@V?$standard_base@_WV?$stream_output_adapter@_W@__crt_stdio_output@@@2@@__crt_stdio_output@@AEAA_NQEAH@Z 0000000180029260     libucrt:output.obj
 0002:0000b260       $unwind$?parse_int_from_format_string@?$output_processor@_WV?$string_output_adapter@_W@__crt_stdio_output@@V?$standard_base@_WV?$string_output_adapter@_W@__crt_stdio_output@@@2@@__crt_stdio_output@@AEAA_NQEAH@Z 0000000180029260     libucrt:output.obj
 0002:0000b274       $unwind$?state_case_type@?$output_processor@_WV?$stream_output_adapter@_W@__crt_stdio_output@@V?$standard_base@_WV?$stream_output_adapter@_W@__crt_stdio_output@@@2@@__crt_stdio_output@@AEAA_NXZ 0000000180029274     libucrt:output.obj
 0002:0000b294       $unwind$?type_case_a@?$output_processor@_WV?$string_output_adapter@_W@__crt_stdio_output@@V?$standard_base@_WV?$string_output_adapter@_W@__crt_stdio_output@@@2@@__crt_stdio_output@@AEAA_NXZ 0000000180029294     libucrt:output.obj
 0002:0000b294       $unwind$?type_case_a@?$output_processor@_WV?$stream_output_adapter@_W@__crt_stdio_output@@V?$standard_base@_WV?$stream_output_adapter@_W@__crt_stdio_output@@@2@@__crt_stdio_output@@AEAA_NXZ 0000000180029294     libucrt:output.obj
 0002:0000b2a4       $unwind$?write_string@?$string_output_adapter@_W@__crt_stdio_output@@QEBAXQEB_WHQEAHAEAV__crt_deferred_errno_cache@@@Z 00000001800292a4     libucrt:output.obj
 0002:0000b2bc       $unwind$?state_case_type@?$output_processor@_WV?$string_output_adapter@_W@__crt_stdio_output@@V?$standard_base@_WV?$string_output_adapter@_W@__crt_stdio_output@@@2@@__crt_stdio_output@@AEAA_NXZ 00000001800292bc     libucrt:output.obj
 0002:0000b2e0       $unwind$?write_stored_string_tchar@?$output_processor@_WV?$string_output_adapter@_W@__crt_stdio_output@@V?$standard_base@_WV?$string_output_adapter@_W@__crt_stdio_output@@@2@@__crt_stdio_output@@AEAA_N_W@Z 00000001800292e0     libucrt:output.obj
 0002:0000b2f4       $unwind$??$write_multiple_characters@V?$string_output_adapter@_W@__crt_stdio_output@@D@__crt_stdio_output@@YAXAEBV?$string_output_adapter@_W@0@DHQEAH@Z 00000001800292f4     libucrt:output.obj
 0002:0000b300       $unwind$??$write_multiple_characters@V?$stream_output_adapter@_W@__crt_stdio_output@@D@__crt_stdio_output@@YAXAEBV?$stream_output_adapter@_W@0@DHQEAH@Z 0000000180029300     libucrt:output.obj
 0002:0000b300       $unwind$??$write_multiple_characters@V?$stream_output_adapter@D@__crt_stdio_output@@D@__crt_stdio_output@@YAXAEBV?$stream_output_adapter@D@0@DHQEAH@Z 0000000180029300     libucrt:output.obj
 0002:0000b318       $unwind$??$type_case_integer_parse_into_buffer@I@?$output_processor@DV?$stream_output_adapter@D@__crt_stdio_output@@V?$standard_base@DV?$stream_output_adapter@D@__crt_stdio_output@@@2@@__crt_stdio_output@@AEAAXII_N@Z 0000000180029318     libucrt:output.obj
 0002:0000b318       $unwind$??$type_case_integer_parse_into_buffer@_K@?$output_processor@_WV?$string_output_adapter@_W@__crt_stdio_output@@V?$standard_base@_WV?$string_output_adapter@_W@__crt_stdio_output@@@2@@__crt_stdio_output@@AEAAX_KI_N@Z 0000000180029318     libucrt:output.obj
 0002:0000b318       $unwind$??$type_case_integer_parse_into_buffer@_K@?$output_processor@_WV?$stream_output_adapter@_W@__crt_stdio_output@@V?$standard_base@_WV?$stream_output_adapter@_W@__crt_stdio_output@@@2@@__crt_stdio_output@@AEAAX_KI_N@Z 0000000180029318     libucrt:output.obj
 0002:0000b318       $unwind$??$type_case_integer_parse_into_buffer@_K@?$output_processor@DV?$stream_output_adapter@D@__crt_stdio_output@@V?$standard_base@DV?$stream_output_adapter@D@__crt_stdio_output@@@2@@__crt_stdio_output@@AEAAX_KI_N@Z 0000000180029318     libucrt:output.obj
 0002:0000b318       $unwind$??$type_case_integer_parse_into_buffer@I@?$output_processor@_WV?$stream_output_adapter@_W@__crt_stdio_output@@V?$standard_base@_WV?$stream_output_adapter@_W@__crt_stdio_output@@@2@@__crt_stdio_output@@AEAAXII_N@Z 0000000180029318     libucrt:output.obj
 0002:0000b318       $unwind$??$type_case_integer_parse_into_buffer@I@?$output_processor@_WV?$string_output_adapter@_W@__crt_stdio_output@@V?$standard_base@_WV?$string_output_adapter@_W@__crt_stdio_output@@@2@@__crt_stdio_output@@AEAAXII_N@Z 0000000180029318     libucrt:output.obj
 0002:0000b320       $unwind$??$?RV<lambda_a62c933ada0517137acf5807a1eeac1f>@@AEAV<lambda_a31071773b9a94e445cbd5d04ef99106>@@V<lambda_56065050dbf3ada7e59a83db45153de3>@@@?$__crt_seh_guarded_call@H@@QEAAH$$QEAV<lambda_a62c933ada0517137acf5807a1eeac1f>@@AEAV<lambda_a31071773b9a94e445cbd5d04ef99106>@@$$QEAV<lambda_56065050dbf3ada7e59a83db45153de3>@@@Z 0000000180029320     libucrt:output.obj
 0002:0000b344       $unwind$??$?RV<lambda_0d412022a4b28cc8a401ea49574e8ae6>@@AEAV<lambda_a775ed57af18ba8e4d5dc780aa9068fe>@@V<lambda_975a71a6baa488a08f4e15f6b0339b9e>@@@?$__crt_seh_guarded_call@H@@QEAAH$$QEAV<lambda_0d412022a4b28cc8a401ea49574e8ae6>@@AEAV<lambda_a775ed57af18ba8e4d5dc780aa9068fe>@@$$QEAV<lambda_975a71a6baa488a08f4e15f6b0339b9e>@@@Z 0000000180029344     libucrt:output.obj
 0002:0000b368       $unwind$strpbrk            0000000180029368     libucrt:strpbrk.obj
 0002:0000b368       $unwind$_strdup            0000000180029368     libucrt:strdup.obj
 0002:0000b378       $unwind$_stricmp_l         0000000180029378     libucrt:stricmp.obj
 0002:0000b378       $unwind$?x_ismbbtype_l@@YAHPEAU__crt_locale_pointers@@IHH@Z 0000000180029378     libucrt:ismbbyte.obj
 0002:0000b388       $unwind$_query_new_handler 0000000180029388     libucrt:new_handler.obj
 0002:0000b3a8       $unwind$?common_exit@@YAXHW4_crt_exit_cleanup_mode@@W4_crt_exit_return_mode@@@Z 00000001800293a8     libucrt:exit.obj
 0002:0000b3b4       $unwind$??R<lambda_6e4b09c48022b2350581041d5f6b0c4c>@@QEBA@XZ 00000001800293b4     libucrt:exit.obj
 0002:0000b3d4       $unwind$??$?RV<lambda_d80eeec6fff315bfe5c115232f3240e3>@@AEAV<lambda_6e4b09c48022b2350581041d5f6b0c4c>@@V<lambda_2358e3775559c9db80273638284d5e45>@@@?$__crt_seh_guarded_call@X@@QEAAX$$QEAV<lambda_d80eeec6fff315bfe5c115232f3240e3>@@AEAV<lambda_6e4b09c48022b2350581041d5f6b0c4c>@@$$QEAV<lambda_2358e3775559c9db80273638284d5e45>@@@Z 00000001800293d4     libucrt:exit.obj
 0002:0000b3f8       $unwind$_configure_narrow_argv 00000001800293f8     libucrt:argv_parsing.obj
 0002:0000b40c       $unwind$??$free_environment@D@@YAXQEAPEAD@Z 000000018002940c     libucrt:environment_initialization.obj
 0002:0000b40c       $unwind$??$free_environment@_W@@YAXQEAPEA_W@Z 000000018002940c     libucrt:environment_initialization.obj
 0002:0000b418       $unwind$??$create_environment@D@@YAQEAPEADQEAD@Z 0000000180029418     libucrt:environment_initialization.obj
 0002:0000b430       $unwind$_register_onexit_function 0000000180029430     libucrt:onexit.obj
 0002:0000b438       $unwind$_execute_onexit_table 0000000180029438     libucrt:onexit.obj
 0002:0000b440       $unwind$??$?RV<lambda_8369fcb7c4df1e85de37618bd2b85f07>@@AEAV<lambda_a10e4b102d4a2c3aac6f4f48bbdf488f>@@V<lambda_5b7707bd6d7a0c4713179f36c7fd995d>@@@?$__crt_seh_guarded_call@H@@QEAAH$$QEAV<lambda_8369fcb7c4df1e85de37618bd2b85f07>@@AEAV<lambda_a10e4b102d4a2c3aac6f4f48bbdf488f>@@$$QEAV<lambda_5b7707bd6d7a0c4713179f36c7fd995d>@@@Z 0000000180029440     libucrt:onexit.obj
 0002:0000b464       $unwind$??$?RV<lambda_7777bce6b2f8c936911f934f8298dc43>@@AEAV<lambda_f03950bc5685219e0bcd2087efbe011e>@@V<lambda_3883c3dff614d5e0c5f61bb1ac94921c>@@@?$__crt_seh_guarded_call@H@@QEAAH$$QEAV<lambda_7777bce6b2f8c936911f934f8298dc43>@@AEAV<lambda_f03950bc5685219e0bcd2087efbe011e>@@$$QEAV<lambda_3883c3dff614d5e0c5f61bb1ac94921c>@@@Z 0000000180029464     libucrt:onexit.obj
 0002:0000b488       $unwind$terminate          0000000180029488     libucrt:terminate.obj
 0002:0000b4a8       $unwind$??$parse_integer@KV?$c_string_character_source@D@__crt_strtox@@@__crt_strtox@@YAKQEAU__crt_locale_pointers@@V?$c_string_character_source@D@0@H_N@Z 00000001800294a8     libucrt:atox.obj
 0002:0000b4c0       $unwind$??$parse_integer@KV?$c_string_character_source@_W@__crt_strtox@@@__crt_strtox@@YAKQEAU__crt_locale_pointers@@V?$c_string_character_source@_W@0@H_N@Z 00000001800294c0     libucrt:atox.obj
 0002:0000b4d8       $xdatasym                  00000001800294d8     libucrt:strncmp.obj
 0002:0000b4dc       $unwind$_log10_special     00000001800294dc     libucrt:log_special.obj
 0002:0000b4dc       $unwind$fflush             00000001800294dc     libucrt:fflush.obj
 0002:0000b4dc       $unwind$wctomb_s           00000001800294dc     libucrt:wctomb.obj
 0002:0000b4dc       $unwind$_itow_s            00000001800294dc     libucrt:xtoa.obj
 0002:0000b4dc       $unwind$wcstol             00000001800294dc     libucrt:strtox.obj
 0002:0000b4dc       $unwind$_invalid_parameter_noinfo 00000001800294dc     libucrt:invalid_parameter.obj
 0002:0000b4dc       $unwind$strtol             00000001800294dc     libucrt:strtox.obj
 0002:0000b4e4       $unwind$__acrt_call_reportfault 00000001800294e4     libucrt:invalid_parameter.obj
 0002:0000b504       $unwind$__acrt_MessageBoxW 0000000180029504     libucrt:winapi_thunks.obj
 0002:0000b504       $unwind$??$__acrt_convert_wcs_mbs@_WD$$A6A_KPEADPEB_W_KPEAU__crt_locale_pointers@@@ZU__crt_win32_buffer_no_resizing@@@@YAHQEB_WAEAV?$__crt_win32_buffer@DU__crt_win32_buffer_no_resizing@@@@A6A_KPEADPEB_W_KPEAU__crt_locale_pointers@@@Z5@Z 0000000180029504     libucrt:findnextfilea.obj
 0002:0000b504       $unwind$_invalid_parameter 0000000180029504     libucrt:invalid_parameter.obj
 0002:0000b518       $unwind$??$common_xtox_s@K_W@@YAHKQEA_W_KI_N@Z 0000000180029518     libucrt:xtoa.obj
 0002:0000b518       $unwind$?__mbrtowc_utf8@__crt_mbstring@@YA_KPEA_WPEBD_KPEAU_Mbstatet@@@Z 0000000180029518     libucrt:mbrtowc.obj
 0002:0000b520       $unwind$__acrt_GetModuleFileNameA 0000000180029520     libucrt:getmodulefilenamea.obj
 0002:0000b538       $unwind$?common_flush_all@@YAH_N@Z 0000000180029538     libucrt:fflush.obj
 0002:0000b540       $unwind$??$?RV<lambda_842d9ff0dc9ef11c61343bbaebe7f885>@@AEAV<lambda_c5860995281e5c4ce005b3de8f5874ee>@@V<lambda_d90129c13df834fdcbf8d2b88dafcf2d>@@@?$__crt_seh_guarded_call@X@@QEAAX$$QEAV<lambda_842d9ff0dc9ef11c61343bbaebe7f885>@@AEAV<lambda_c5860995281e5c4ce005b3de8f5874ee>@@$$QEAV<lambda_d90129c13df834fdcbf8d2b88dafcf2d>@@@Z 0000000180029540     libucrt:fflush.obj
 0002:0000b564       $unwind$??$?RV<lambda_886d6c58226a84441f68b9f2b8217b83>@@AEAV<lambda_ab61a845afdef5b7c387490eaf3616ee>@@V<lambda_f7f22ab5edc0698d5f6905b0d3f44752>@@@?$__crt_seh_guarded_call@X@@QEAAX$$QEAV<lambda_886d6c58226a84441f68b9f2b8217b83>@@AEAV<lambda_ab61a845afdef5b7c387490eaf3616ee>@@$$QEAV<lambda_f7f22ab5edc0698d5f6905b0d3f44752>@@@Z 0000000180029564     libucrt:fflush.obj
 0002:0000b58c       $unwind$??$?RV<lambda_c376a267cfb53b6959b3b692ec76b120>@@AEAV<lambda_9a32fed5bf61b6b509b2d3f6003082a1>@@V<lambda_572fbb9fa0ab338edf41edfd4b5fcc8d>@@@?$__crt_seh_guarded_call@H@@QEAAH$$QEAV<lambda_c376a267cfb53b6959b3b692ec76b120>@@AEAV<lambda_9a32fed5bf61b6b509b2d3f6003082a1>@@$$QEAV<lambda_572fbb9fa0ab338edf41edfd4b5fcc8d>@@@Z 000000018002958c     libucrt:fflush.obj
 0002:0000b5b0       $unwind$setvbuf            00000001800295b0     libucrt:setvbuf.obj
 0002:0000b5b8       $unwind$??$?RV<lambda_84ec643ea9557e2f7dc01bb0e9624395>@@AEAV<lambda_ca71763b3c0644891230e4f79ea54fa6>@@V<lambda_439a761618c59b0600e24586724d733b>@@@?$__crt_seh_guarded_call@H@@QEAAH$$QEAV<lambda_84ec643ea9557e2f7dc01bb0e9624395>@@AEAV<lambda_ca71763b3c0644891230e4f79ea54fa6>@@$$QEAV<lambda_439a761618c59b0600e24586724d733b>@@@Z 00000001800295b8     libucrt:setvbuf.obj
 0002:0000b5dc       $unwind$__acrt_uninitialize_locale 00000001800295dc     libucrt:wsetlocale.obj
 0002:0000b5dc       $unwind$__acrt_get_sigabrt_handler 00000001800295dc     libucrt:signal.obj
 0002:0000b5e4       $unwind$raise              00000001800295e4     libucrt:signal.obj
 0002:0000b620       $unwind$??$?RV<lambda_450d765d439847d4c735a33c368b5fc0>@@AEAV<lambda_44731a7d0e6d81c3e6aa82d741081786>@@V<lambda_601a2a7da3b7a96e9554ac7215c4b07c>@@@?$__crt_seh_guarded_call@P6AXH@Z@@QEAAP6AXH@Z$$QEAV<lambda_450d765d439847d4c735a33c368b5fc0>@@AEAV<lambda_44731a7d0e6d81c3e6aa82d741081786>@@$$QEAV<lambda_601a2a7da3b7a96e9554ac7215c4b07c>@@@Z 0000000180029620     libucrt:signal.obj
 0002:0000b644       $unwind$_free_base         0000000180029644     libucrt:free_base.obj
 0002:0000b644       $unwind$__acrt_locale_free_numeric 0000000180029644     libucrt:initnum.obj
 0002:0000b644       $unwind$__acrt_locale_free_lc_time_if_unreferenced 0000000180029644     libucrt:locale_refcounting.obj
 0002:0000b644       $unwind$?destroy_fls@@YAXPEAX@Z 0000000180029644     libucrt:per_thread_data.obj
 0002:0000b64c       $unwind$_mbtowc_l          000000018002964c     libucrt:mbtowc.obj
 0002:0000b64c       $unwind$?fp_format_e@@YAHQEBNQEAD_K12H_NIQEAU__crt_locale_pointers@@@Z 000000018002964c     libucrt:cvt.obj
 0002:0000b64c       $unwind$__acrt_LCMapStringEx 000000018002964c     libucrt:winapi_thunks.obj
 0002:0000b660       $unwind$__acrt_is_interactive 0000000180029660     libucrt:winapi_thunks.obj
 0002:0000b674       $unwind$_fcloseall         0000000180029674     libucrt:closeall.obj
 0002:0000b698       $unwind$__acrt_initialize_lowio 0000000180029698     libucrt:ioinit.obj
 0002:0000b6b8       $unwind$?initialize_inherited_file_handles_nolock@@YAXXZ 00000001800296b8     libucrt:ioinit.obj
 0002:0000b6d4       $unwind$_tolower_l         00000001800296d4     libucrt:tolower_toupper.obj
 0002:0000b6e4       $unwind$_wctomb_s_l        00000001800296e4     libucrt:wctomb.obj
 0002:0000b6f4       $unwind$?construct_ptd_array@@YAXQEAU__acrt_ptd@@@Z 00000001800296f4     libucrt:per_thread_data.obj
 0002:0000b6fc       $unwind$?destroy_ptd_array@@YAXQEAU__acrt_ptd@@@Z 00000001800296fc     libucrt:per_thread_data.obj
 0002:0000b704       $unwind$??$?RV<lambda_0ae27a3a962d80f24befdcbee591983d>@@AEAV<lambda_8d0ee55de4b1038c4002e0adecdf1839>@@V<lambda_dc504788e8f1664fe9b84e20bfb512f2>@@@?$__crt_seh_guarded_call@X@@QEAAX$$QEAV<lambda_0ae27a3a962d80f24befdcbee591983d>@@AEAV<lambda_8d0ee55de4b1038c4002e0adecdf1839>@@$$QEAV<lambda_dc504788e8f1664fe9b84e20bfb512f2>@@@Z 0000000180029704     libucrt:per_thread_data.obj
 0002:0000b728       $unwind$??$?RV<lambda_aa87e3671a710a21b5dc78c0bdf72e11>@@AEAV<lambda_92619d2358a28f41a33ba319515a20b9>@@V<lambda_6992ecaafeb10aed2b74cb1fae11a551>@@@?$__crt_seh_guarded_call@X@@QEAAX$$QEAV<lambda_aa87e3671a710a21b5dc78c0bdf72e11>@@AEAV<lambda_92619d2358a28f41a33ba319515a20b9>@@$$QEAV<lambda_6992ecaafeb10aed2b74cb1fae11a551>@@@Z 0000000180029728     libucrt:per_thread_data.obj
 0002:0000b74c       $unwind$??$?RV<lambda_f2e299630e499de9f9a165e60fcd3db5>@@AEAV<lambda_2ae9d31cdba2644fcbeaf08da7c24588>@@V<lambda_40d01ff24d0e7b3814fdbdcee8eab3c7>@@@?$__crt_seh_guarded_call@X@@QEAAX$$QEAV<lambda_f2e299630e499de9f9a165e60fcd3db5>@@AEAV<lambda_2ae9d31cdba2644fcbeaf08da7c24588>@@$$QEAV<lambda_40d01ff24d0e7b3814fdbdcee8eab3c7>@@@Z 000000018002974c     libucrt:per_thread_data.obj
 0002:0000b770       $unwind$??$?RV<lambda_2d41944a1d46af3157314b8a01080d33>@@AEAV<lambda_8f455de75cd7d7f24b4096f044d8b9e6>@@V<lambda_aa500f224e6afead328df44964fe2772>@@@?$__crt_seh_guarded_call@X@@QEAAX$$QEAV<lambda_2d41944a1d46af3157314b8a01080d33>@@AEAV<lambda_8f455de75cd7d7f24b4096f044d8b9e6>@@$$QEAV<lambda_aa500f224e6afead328df44964fe2772>@@@Z 0000000180029770     libucrt:per_thread_data.obj
 0002:0000b794       $unwind$__acrt_fp_format   0000000180029794     libucrt:cvt.obj
 0002:0000b7a8       $unwind$?fp_format_nan_or_infinity@@YAHW4__acrt_fp_class@@_NPEAD_K1@Z 00000001800297a8     libucrt:cvt.obj
 0002:0000b7bc       $unwind$?fp_format_e_internal@@YAHQEAD_KH_NIQEAU_strflt@@2QEAU__crt_locale_pointers@@@Z 00000001800297bc     libucrt:cvt.obj
 0002:0000b7d4       $unwind$?fp_format_a@@YAHQEBNPEAD_KQEAD2H_NIQEAU__crt_locale_pointers@@@Z 00000001800297d4     libucrt:cvt.obj
 0002:0000b7f0       $unwind$?fp_format_f_internal@@YAHQEAD_KHQEAU_strflt@@_NQEAU__crt_locale_pointers@@@Z 00000001800297f0     libucrt:cvt.obj
 0002:0000b7f0       $unwind$__dcrt_get_narrow_environment_from_os 00000001800297f0     libucrt:get_environment_from_os.obj
 0002:0000b808       $unwind$?fp_format_g@@YAHQEBNQEAD_K12H_NIQEAU__crt_locale_pointers@@@Z 0000000180029808     libucrt:cvt.obj
 0002:0000b81c       $unwind$_fputwc_nolock     000000018002981c     libucrt:fputwc.obj
 0002:0000b838       $unwind$??$?RV<lambda_410d79af7f07d98d83a3f525b3859a53>@@AEAV<lambda_3e16ef9562a7dcce91392c22ab16ea36>@@V<lambda_38119f0e861e05405d8a144b9b982f0a>@@@?$__crt_seh_guarded_call@X@@QEAAX$$QEAV<lambda_410d79af7f07d98d83a3f525b3859a53>@@AEAV<lambda_3e16ef9562a7dcce91392c22ab16ea36>@@$$QEAV<lambda_38119f0e861e05405d8a144b9b982f0a>@@@Z 0000000180029838     libucrt:wsetlocale.obj
 0002:0000b860       $unwind$??$common_expand_argv_wildcards@D@@YAHQEAPEADQEAPEAPEAD@Z 0000000180029860     libucrt:argv_wildcards.obj
 0002:0000b878       $unwind$??$copy_and_add_argument_to_buffer@D@@YAHQEBD0_KAEAV?$argument_list@D@?A0x5f5c8891@@@Z 0000000180029878     libucrt:argv_wildcards.obj
 0002:0000b894       $unwind$??$expand_argument_wildcards@D@@YAHQEAD0AEAV?$argument_list@D@?A0x5f5c8891@@@Z 0000000180029894     libucrt:argv_wildcards.obj
 0002:0000b8b4       $unwind$_setmbcp_nolock    00000001800298b4     libucrt:mbctype.obj
 0002:0000b8d4       $unwind$?update_thread_multibyte_data_internal@@YAPEAU__crt_multibyte_data@@QEAU__acrt_ptd@@QEAPEAU1@@Z 00000001800298d4     libucrt:mbctype.obj
 0002:0000b8fc       $unwind$?setmbcp_internal@@YAHH_NQEAU__acrt_ptd@@QEAPEAU__crt_multibyte_data@@@Z 00000001800298fc     libucrt:mbctype.obj
 0002:0000b90c       $unwind$?setSBUpLow@@YAXPEAU__crt_multibyte_data@@@Z 000000018002990c     libucrt:mbctype.obj
 0002:0000b928       $unwind$??$?RV<lambda_efdfa57d1f175319df784efa44bb7b81>@@AEAV<lambda_5f0a4c1567f8adc6734073e5d1e1b35c>@@V<lambda_2e8a7d3640ea6ccb4c2413664c2db6fd>@@@?$__crt_seh_guarded_call@X@@QEAAX$$QEAV<lambda_efdfa57d1f175319df784efa44bb7b81>@@AEAV<lambda_5f0a4c1567f8adc6734073e5d1e1b35c>@@$$QEAV<lambda_2e8a7d3640ea6ccb4c2413664c2db6fd>@@@Z 0000000180029928     libucrt:mbctype.obj
 0002:0000b94c       $unwind$__acrt_WideCharToMultiByte 000000018002994c     libucrt:widechartomultibyte.obj
 0002:0000b94c       $unwind$__GSHandlerCheckCommon 000000018002994c     LIBCMT:_gshandler_.obj
 0002:0000b954       $unwind$iswctype           0000000180029954     libucrt:iswctype.obj
 0002:0000b960       $unwind$_isctype_l         0000000180029960     libucrt:isctype.obj
 0002:0000b978       $unwind$?_mbstowcs_l_helper@@YA_KPEA_WPEBD_KPEAU__crt_locale_pointers@@@Z 0000000180029978     libucrt:mbstowcs.obj
 0002:0000b990       $unwind$_close             0000000180029990     libucrt:close.obj
 0002:0000b990       $unwind$_commit            0000000180029990     libucrt:commit.obj
 0002:0000b998       $unwind$??$?RV<lambda_a37b2b86f63e897a80ea819b0eb08c01>@@AEAV<lambda_38ce7e780aa69e748d6df282ebc68efe>@@V<lambda_99fb1378e971ab6e7edea83e3a7a83a2>@@@?$__crt_seh_guarded_call@H@@QEAAH$$QEAV<lambda_a37b2b86f63e897a80ea819b0eb08c01>@@AEAV<lambda_38ce7e780aa69e748d6df282ebc68efe>@@$$QEAV<lambda_99fb1378e971ab6e7edea83e3a7a83a2>@@@Z 0000000180029998     libucrt:commit.obj
 0002:0000b9bc       $unwind$_write             00000001800299bc     libucrt:write.obj
 0002:0000b9ec       $unwind$_write_nolock      00000001800299ec     libucrt:write.obj
 0002:0000ba04       $unwind$?write_double_translated_ansi_nolock@@YA?AUwrite_result@?A0x17268360@@HQEBDI@Z 0000000180029a04     libucrt:write.obj
 0002:0000ba24       $unwind$?write_text_ansi_nolock@@YA?AUwrite_result@?A0x17268360@@HQEBDI@Z 0000000180029a24     libucrt:write.obj
 0002:0000ba24       $unwind$?write_text_utf16le_nolock@@YA?AUwrite_result@?A0x17268360@@HQEBDI@Z 0000000180029a24     libucrt:write.obj
 0002:0000ba44       $unwind$?write_text_utf8_nolock@@YA?AUwrite_result@?A0x17268360@@HQEBDI@Z 0000000180029a44     libucrt:write.obj
 0002:0000ba68       $unwind$?GetTableIndexFromLocaleName@@YAHPEB_W@Z 0000000180029a68     libucrt:lcidtoname_downlevel.obj
 0002:0000ba80       $unwind$fclose             0000000180029a80     libucrt:fclose.obj
 0002:0000baa4       $unwind$__acrt_lowio_destroy_handle_array 0000000180029aa4     libucrt:osfinfo.obj
 0002:0000bab4       $unwind$__acrt_lowio_ensure_fh_exists 0000000180029ab4     libucrt:osfinfo.obj
 0002:0000bae0       $unwind$__acrt_LCMapStringA 0000000180029ae0     libucrt:lcmapstringa.obj
 0002:0000baf0       $unwind$?__acrt_LCMapStringA_stat@@YAHPEAU__crt_locale_pointers@@PEB_WKPEBDHPEADHHH@Z 0000000180029af0     libucrt:lcmapstringa.obj
 0002:0000bb18       $unwind$?__mbsrtowcs_utf8@__crt_mbstring@@YA_KPEA_WPEAPEBD_KPEAU_Mbstatet@@@Z 0000000180029b18     libucrt:mbrtowc.obj
 0002:0000bb30       $unwind$__acrt_update_thread_locale_data 0000000180029b30     libucrt:locale_refcounting.obj
 0002:0000bb54       $unwind$__acrt_fltout      0000000180029b54     libucrt:cfout.obj
 0002:0000bb74       $unwind$?divide@__crt_strtox@@YA_KAEAUbig_integer@1@AEBU21@@Z 0000000180029b74     libucrt:cfout.obj
 0002:0000bb80       $chain$0$?divide@__crt_strtox@@YA_KAEAUbig_integer@1@AEBU21@@Z 0000000180029b80     libucrt:cfout.obj
 0002:0000bb94       $chain$6$?divide@__crt_strtox@@YA_KAEAUbig_integer@1@AEBU21@@Z 0000000180029b94     libucrt:cfout.obj
 0002:0000bbb8       $chain$7$?divide@__crt_strtox@@YA_KAEAUbig_integer@1@AEBU21@@Z 0000000180029bb8     libucrt:cfout.obj
 0002:0000bbcc       $chain$8$?divide@__crt_strtox@@YA_KAEAUbig_integer@1@AEBU21@@Z 0000000180029bcc     libucrt:cfout.obj
 0002:0000bbdc       $unwind$??$write_buffer_nolock@D@@YA_NDV__crt_stdio_stream@@@Z 0000000180029bdc     libucrt:_flsbuf.obj
 0002:0000bbec       $unwind$??$write_buffer_nolock@_W@@YA_N_WV__crt_stdio_stream@@@Z 0000000180029bec     libucrt:_flsbuf.obj
 0002:0000bbfc       $unwind$__acrt_locale_free_monetary 0000000180029bfc     libucrt:initmon.obj
 0002:0000bc04       $unwind$__acrt_locale_free_time 0000000180029c04     libucrt:inittime.obj
 0002:0000bc14       $unwind$__acrt_GetStringTypeA 0000000180029c14     libucrt:getstringtypea.obj
 0002:0000bc3c       $unwind$qsort              0000000180029c3c     libucrt:qsort.obj
 0002:0000bc54       $chain$4$qsort             0000000180029c54     libucrt:qsort.obj
 0002:0000bc78       $chain$5$qsort             0000000180029c78     libucrt:qsort.obj
 0002:0000bc88       $unwind$fallbackMethod     0000000180029c88     libucrt:strpbrk.obj
 0002:0000bc98       $unwind$__acrt_FindFirstFileExA 0000000180029c98     libucrt:findfirstfileexa.obj
 0002:0000bca8       $unwind$??$__acrt_convert_wcs_mbs@D_W$$A6A_KPEA_WPEBD_KPEAU__crt_locale_pointers@@@ZU__crt_win32_buffer_internal_dynamic_resizing@@@@YAHQEBDAEAV?$__crt_win32_buffer@_WU__crt_win32_buffer_internal_dynamic_resizing@@@@A6A_KPEA_WPEBD_KPEAU__crt_locale_pointers@@@Z5@Z 0000000180029ca8     libucrt:findfirstfileexa.obj
 0002:0000bcc0       $unwind$__acrt_FindNextFileA 0000000180029cc0     libucrt:findnextfilea.obj
 0002:0000bcdc       $unwind$_mbsdec_l          0000000180029cdc     libucrt:mbsdec.obj
 0002:0000bce8       $unwind$??$common_lseek@_J@@YA_JH_JH@Z 0000000180029ce8     libucrt:lseek.obj
 0002:0000bd18       $unwind$_putwch_nolock     0000000180029d18     libucrt:putwch.obj
 0002:0000bd20       $unwind$??$?RV<lambda_751a882b2c74d4b022dec766aa51a29a>@@AEAV<lambda_628dfdc04ba53c8bfc02c9951375f3f5>@@V<lambda_f6c7be5f7998530c34de24c7437d6b54>@@@?$__crt_seh_guarded_call@H@@QEAAH$$QEAV<lambda_751a882b2c74d4b022dec766aa51a29a>@@AEAV<lambda_628dfdc04ba53c8bfc02c9951375f3f5>@@$$QEAV<lambda_f6c7be5f7998530c34de24c7437d6b54>@@@Z 0000000180029d20     libucrt:close.obj
 0002:0000bd44       $unwind$?__mbrtoc32_utf8@__crt_mbstring@@YA_KPEA_UPEBD_KPEAU_Mbstatet@@@Z 0000000180029d44     libucrt:mbrtoc32.obj
 0002:0000bd60       $xdatasym                  0000000180029d60     libucrt:log10.obj
 0002:0000bd6c       $unwind$?_wcstombs_l_helper@@YA_KPEADPEB_W_KPEAU__crt_locale_pointers@@@Z 0000000180029d6c     libucrt:wcstombs.obj
 0002:0000bd90       $stateUnwindMap$?_wcstombs_l_helper@@YA_KPEADPEB_W_KPEAU__crt_locale_pointers@@@Z 0000000180029d90     libucrt:wcstombs.obj
 0002:0000bd98       $ip2state$?_wcstombs_l_helper@@YA_KPEADPEB_W_KPEAU__crt_locale_pointers@@@Z 0000000180029d98     libucrt:wcstombs.obj
 0002:0000bdb0       $unwind$__dcrt_write_console 0000000180029db0     libucrt:initcon.obj
 0002:0000bdc4       $unwind$__acrt_fenv_set_control 0000000180029dc4     libucrt:_fenvutils.obj
 0002:0000bdd4       $unwind$_call_matherr      0000000180029dd4     libucrt:libm_error.obj
 0002:0000bddc       $unwind$_handle_error      0000000180029ddc     libucrt:libm_error.obj
 0002:0000bdfc       $unwind$__acrt_initialize_fma3 0000000180029dfc     libucrt:fma3_available.obj
 0002:0000be04       $unwind$_log_special_common 0000000180029e04     libucrt:log_special.obj
 0002:0000be10       $unwind$?__wcsrtombs_utf8@__crt_mbstring@@YA_KPEADPEAPEB_W_KPEAU_Mbstatet@@@Z 0000000180029e10     libucrt:wcrtomb.obj
 0002:0000be30       $xdatasym                  0000000180029e30     libucrt:fpsr.obj
 0002:0000be38       $unwind$_raise_exc_ex      0000000180029e38     libucrt:fpexcept.obj
 0002:0000be4c       $unwind$_ctrlfp            0000000180029e4c     libucrt:fpctrl.obj
 0002:0000be74       $unwind$?DloadObtainSection@@YAPEAXPEAK0@Z 0000000180029e74     DelayImp:delayhlp.obj
 0002:0000be84       $unwind$?DloadMakePermanentImageCommit@@YAXPEAX_K@Z 0000000180029e84     DelayImp:delayhlp.obj
 0002:0000be90       $unwind$?DloadProtectSection@@YAXKPEAK@Z 0000000180029e90     DelayImp:delayhlp.obj
 0002:0000bea0       $unwind$__delayLoadHelper2 0000000180029ea0     DelayImp:delayhlp.obj
 0002:0000beb8       $unwind$_IsNonwritableInCurrentImage 0000000180029eb8     LIBCMT:pesect.obj
 0002:0000bee0       $xdatasym                  0000000180029ee0     LIBCMT:_chkstk_.obj
 0002:0000bee8       $unwind$strrchr            0000000180029ee8     libvcruntime:strrchr.obj
 0002:0000bef0       $xdatasym                  0000000180029ef0     libvcruntime:memcmp.obj
 0002:0000d8f0       .edata                     000000018002b8f0     kerberos.exp
 0002:0000d918       rgpv                       000000018002b918     kerberos.exp
 0002:0000d91c       rgszName                   000000018002b91c     kerberos.exp
 0002:0000d920       rgwOrd                     000000018002b920     kerberos.exp
 0002:0000d922       szName                     000000018002b922     kerberos.exp
 0002:0000d930       $N00001                    000000018002b930     kerberos.exp
 0002:0000dc16       .idata$6                   000000018002bc16     kernel32:KERNEL32.dll
 0003:00000030       ?__vcrt_flsindex@@3KA      000000018002d030     libvcruntime:per_thread_data.obj
 0003:00000150       ?errno_no_memory@@3HA      000000018002d150     libucrt:errno.obj
 0003:00000154       ?doserrno_no_memory@@3KA   000000018002d154     libucrt:errno.obj
 0003:000001a0       ?__acrt_flsindex@@3KA      000000018002d1a0     libucrt:per_thread_data.obj
 0003:0000031c       ?__rgctypeflag@@3PADA      000000018002d31c     libucrt:mbctype.obj
 0003:00000320       ?__rgcode_page_info@@3PAUcode_page_info@@A 000000018002d320     libucrt:mbctype.obj
 0003:00000640       _mbctypes                  000000018002d640     libucrt:mbctype.obj
 0003:00000750       _mbcasemaps                000000018002d750     libucrt:mbctype.obj
 0003:00000900       ?__dcrt_lowio_console_output_handle@@3PEAXEA 000000018002d900     libucrt:initcon.obj
 0003:00000910       ?dazSupported@?1??_ctrlfp@@9@9 000000018002d910     libucrt:fpctrl.obj
 0003:00000930       _module                    000000018002d930     kerberos.obj
 0003:00000cb8       ?is_initialized_as_dll@@3_NA 000000018002dcb8     LIBCMT:utility.obj
 0003:00000cb9       ?module_local_atexit_table_initialized@@3_NA 000000018002dcb9     LIBCMT:utility.obj
 0003:00000cc0       ?module_local_atexit_table@@3U_onexit_table_t@@A 000000018002dcc0     LIBCMT:utility.obj
 0003:00000cd8       ?module_local_at_quick_exit_table@@3U_onexit_table_t@@A 000000018002dcd8     LIBCMT:utility.obj
 0003:00000cf0       ?__proc_attached@@3HA      000000018002dcf0     LIBCMT:dll_dllmain.obj
 0003:00000d00       GS_ExceptionRecord         000000018002dd00     LIBCMT:gs_report.obj
 0003:00000da0       GS_ContextRecord           000000018002dda0     LIBCMT:gs_report.obj
 0003:000012a0       ?__vcrt_startup_thread_ptd@@3U__vcrt_ptd@@A 000000018002e2a0     libvcruntime:per_thread_data.obj
 0003:00001330       __vcrt_lock_table          000000018002e330     libvcruntime:locks.obj
 0003:00001358       __vcrt_locks_initialized   000000018002e358     libvcruntime:locks.obj
 0003:00001360       ?module_handles@@3PAPEAUHINSTANCE__@@A 000000018002e360     libvcruntime:winapi_downlevel.obj
 0003:00001378       ?encoded_function_pointers@@3PAPEAXA 000000018002e378     libvcruntime:winapi_downlevel.obj
 0003:000013f0       ?heap@@3V_HeapManager@@A   000000018002e3f0     libvcruntime:undname.obj
 0003:00001430       ?__acrt_new_handler@@3V?$dual_state_global@P6AH_K@Z@__crt_state_management@@A 000000018002e430     libucrt:new_handler.obj
 0003:00001438       ?c_termination_complete@@3JA 000000018002e438     libucrt:exit.obj
 0003:00001440       ?thread_local_exit_callback_func@@3P6AXPEAXK0@ZEA 000000018002e440     libucrt:exit.obj
 0003:00001450       ?program_name@?1???$common_configure_argv@D@@YAHW4_crt_argv_mode@@@Z@4PADA 000000018002e450     libucrt:argv_parsing.obj
 0003:000015a8       ?__acrt_invalid_parameter_handler@@3V?$dual_state_global@P6AXPEB_W00I_K@Z@__crt_state_management@@A 000000018002e5a8     libucrt:invalid_parameter.obj
 0003:000015b0       ?__acrt_app_type@@3W4_crt_app_type@@A 000000018002e5b0     libucrt:report_runtime_error.obj
 0003:000015b4       __acrt_error_mode          000000018002e5b4     libucrt:set_error_mode.obj
 0003:000015b8       ?ctrlc_action@@3V?$dual_state_global@P6AXH@Z@__crt_state_management@@A 000000018002e5b8     libucrt:signal.obj
 0003:000015c0       ?ctrlbreak_action@@3V?$dual_state_global@P6AXH@Z@__crt_state_management@@A 000000018002e5c0     libucrt:signal.obj
 0003:000015c8       ?abort_action@@3V?$dual_state_global@P6AXH@Z@__crt_state_management@@A 000000018002e5c8     libucrt:signal.obj
 0003:000015d0       ?term_action@@3V?$dual_state_global@P6AXH@Z@__crt_state_management@@A 000000018002e5d0     libucrt:signal.obj
 0003:000015e0       ?module_handles@@3PAPEAUHINSTANCE__@@A 000000018002e5e0     libucrt:winapi_thunks.obj
 0003:00001680       ?encoded_function_pointers@@3PAPEAXA 000000018002e680     libucrt:winapi_thunks.obj
 0003:00001b98       ?internal_state@?1??_mbtowc_l@@9@4U_Mbstatet@@A 000000018002eb98     libucrt:mbtowc.obj
 0003:00001ba0       ?enable_percent_n@@3_KA    000000018002eba0     libucrt:printf_count_output.obj
 0003:00001bd0       ?__acrt_lock_table@@3PAU_RTL_CRITICAL_SECTION@@A 000000018002ebd0     libucrt:locks.obj
 0003:00001e00       ?__acrt_locks_initialized@@3IA 000000018002ee00     libucrt:locks.obj
 0003:00001e04       ?state_cache@?1???$get_cached_win_policy@Udeveloper_information_policy_properties@?1??__acrt_get_developer_information_policy@@YA?AW4developer_information_policy@@XZ@@@YA?AW4developer_information_policy@@W4AppPolicyShowDeveloperDiagnostic@@@Z@4JA 000000018002ee04     libucrt:win_policies.obj
 0003:00001e08       ?state_cache@?1???$get_cached_win_policy@Uwindowing_model_policy_properties@?1??__acrt_get_windowing_model_policy@@YA?AW4windowing_model_policy@@XZ@@@YA?AW4windowing_model_policy@@W4AppPolicyWindowingModel@@@Z@4JA 000000018002ee08     libucrt:win_policies.obj
 0003:00001e28       ?fSystemSet@@3HA           000000018002ee28     libucrt:mbctype.obj
 0003:00001e2c       ?initialized@?1??__acrt_initialize_multibyte@@9@4_NA 000000018002ee2c     libucrt:mbctype.obj
 0003:00001e68       ?user_matherr@@3V?$dual_state_global@P6AHPEAU_exception@@@Z@__crt_state_management@@A 000000018002ee68     libucrt:matherr.obj
 0003:00001e70       ?__acrt_global_new_mode@@3V?$dual_state_global@J@__crt_state_management@@A 000000018002ee70     libucrt:new_mode.obj
 0003:00001e80       ?internal_pst@?1??__mbrtoc32_utf8@__crt_mbstring@@YA_KPEA_UPEBD_KPEAU_Mbstatet@@@Z@4U3@A 000000018002ee80     libucrt:mbrtoc32.obj
 0003:00001e90       ?internal_pst@?1??__c16rtomb_utf8@__crt_mbstring@@YA_KPEAD_SPEAU_Mbstatet@@@Z@4U3@A 000000018002ee90     libucrt:c16rtomb.obj
 0003:00001ef0       _sspi_secur32_dll          000000018002eef0     kerberos_sspi.obj
 0003:00001ef8       _sspi_security_dll         000000018002eef8     kerberos_sspi.obj
 0004:00000000       $pdata$?FunctionCallbackWrapper@imp@Nan@@YAXAEBV?$FunctionCallbackInfo@VValue@v8@@@v8@@@Z 000000018002f000     kerberos.obj
 0004:0000000c       $pdata$?New@?$Factory@VFunctionTemplate@v8@@@imp@Nan@@SA?AV?$Local@VFunctionTemplate@v8@@@v8@@P6AXAEBV?$FunctionCallbackInfo@VValue@v8@@@3@@ZV?$Local@VValue@v8@@@5@V?$Local@VSignature@v8@@@5@@Z 000000018002f00c     kerberos.obj
 0004:00000018       $pdata$0$?New@?$Factory@VFunctionTemplate@v8@@@imp@Nan@@SA?AV?$Local@VFunctionTemplate@v8@@@v8@@P6AXAEBV?$FunctionCallbackInfo@VValue@v8@@@3@@ZV?$Local@VValue@v8@@@5@V?$Local@VSignature@v8@@@5@@Z 000000018002f018     kerberos.obj
 0004:00000024       $pdata$1$?New@?$Factory@VFunctionTemplate@v8@@@imp@Nan@@SA?AV?$Local@VFunctionTemplate@v8@@@v8@@P6AXAEBV?$FunctionCallbackInfo@VValue@v8@@@3@@ZV?$Local@VValue@v8@@@5@V?$Local@VSignature@v8@@@5@@Z 000000018002f024     kerberos.obj
 0004:00000030       $pdata$2$?New@?$Factory@VFunctionTemplate@v8@@@imp@Nan@@SA?AV?$Local@VFunctionTemplate@v8@@@v8@@P6AXAEBV?$FunctionCallbackInfo@VValue@v8@@@3@@ZV?$Local@VValue@v8@@@5@V?$Local@VSignature@v8@@@5@@Z 000000018002f030     kerberos.obj
 0004:0000003c       $pdata$3$?New@?$Factory@VFunctionTemplate@v8@@@imp@Nan@@SA?AV?$Local@VFunctionTemplate@v8@@@v8@@P6AXAEBV?$FunctionCallbackInfo@VValue@v8@@@3@@ZV?$Local@VValue@v8@@@5@V?$Local@VSignature@v8@@@5@@Z 000000018002f03c     kerberos.obj
 0004:00000048       $pdata$?Wrap@ObjectWrap@Nan@@IEAAXV?$Local@VObject@v8@@@v8@@@Z 000000018002f048     kerberos.obj
 0004:00000054       $pdata$?Ref@ObjectWrap@Nan@@MEAAXXZ 000000018002f054     kerberos.obj
 0004:00000060       $pdata$?Unref@ObjectWrap@Nan@@MEAAXXZ 000000018002f060     kerberos.obj
 0004:0000006c       $pdata$?WeakCallback@ObjectWrap@Nan@@CAXAEBV?$WeakCallbackInfo@VObjectWrap@Nan@@@v8@@@Z 000000018002f06c     kerberos.obj
 0004:00000078       $pdata$??_GObjectWrap@Nan@@UEAAPEAXI@Z 000000018002f078     kerberos.obj
 0004:00000084       $pdata$??_GKerberos@@UEAAPEAXI@Z 000000018002f084     kerberos.obj
 0004:00000090       $pdata$?New@Kerberos@@CAXAEBV?$FunctionCallbackInfo@VValue@v8@@@Nan@@@Z 000000018002f090     kerberos.obj
 0004:0000009c       $pdata$?init@@YAXV?$Local@VObject@v8@@@v8@@@Z 000000018002f09c     kerberos.obj
 0004:000000a8       $pdata$base64_encode       000000018002f0a8     base64.obj
 0004:000000b4       $pdata$base64_decode       000000018002f0b4     base64.obj
 0004:000000c0       $pdata$??_GWorker@@UEAAPEAXI@Z 000000018002f0c0     worker.obj
 0004:000000cc       $pdata$printf              000000018002f0cc     kerberos_sspi.obj
 0004:000000d8       $pdata$?ThrowError@Nan@@YAXPEBD@Z 000000018002f0d8     security_buffer.obj
 0004:000000e4       $pdata$?SetPrototypeMethod@Nan@@YAXV?$Local@VFunctionTemplate@v8@@@v8@@PEBDP6AXAEBV?$FunctionCallbackInfo@VValue@v8@@@1@@Z@Z 000000018002f0e4     security_buffer.obj
 0004:000000f0       $pdata$??_GSecurityBuffer@@UEAAPEAXI@Z 000000018002f0f0     security_buffer.obj
 0004:000000fc       $pdata$?New@SecurityBuffer@@CAXAEBV?$FunctionCallbackInfo@VValue@v8@@@Nan@@@Z 000000018002f0fc     security_buffer.obj
 0004:00000108       $pdata$2$?New@SecurityBuffer@@CAXAEBV?$FunctionCallbackInfo@VValue@v8@@@Nan@@@Z 000000018002f108     security_buffer.obj
 0004:00000114       $pdata$3$?New@SecurityBuffer@@CAXAEBV?$FunctionCallbackInfo@VValue@v8@@@Nan@@@Z 000000018002f114     security_buffer.obj
 0004:00000120       $pdata$?ToBuffer@SecurityBuffer@@SAXAEBV?$FunctionCallbackInfo@VValue@v8@@@Nan@@@Z 000000018002f120     security_buffer.obj
 0004:0000012c       $pdata$??$Unwrap@VSecurityBuffer@@@ObjectWrap@Nan@@SAPEAVSecurityBuffer@@V?$Local@VObject@v8@@@v8@@@Z 000000018002f12c     security_buffer.obj
 0004:0000012c       $pdata$??$Unwrap@VSecurityBufferDescriptor@@@ObjectWrap@Nan@@SAPEAVSecurityBufferDescriptor@@V?$Local@VObject@v8@@@v8@@@Z 000000018002f12c     security_buffer_descriptor.obj
 0004:0000012c       $pdata$??$Unwrap@VSecurityContext@@@ObjectWrap@Nan@@SAPEAVSecurityContext@@V?$Local@VObject@v8@@@v8@@@Z 000000018002f12c     security_context.obj
 0004:0000012c       $pdata$??$Unwrap@VSecurityCredentials@@@ObjectWrap@Nan@@SAPEAVSecurityCredentials@@V?$Local@VObject@v8@@@v8@@@Z 000000018002f12c     security_context.obj
 0004:00000138       $pdata$??_GSecurityBufferDescriptor@@UEAAPEAXI@Z 000000018002f138     security_buffer_descriptor.obj
 0004:00000144       $pdata$??0SecurityBufferDescriptor@@QEAA@AEBV?$Persistent@VArray@v8@@V?$NonCopyablePersistentTraits@VArray@v8@@@2@@Nan@@@Z 000000018002f144     security_buffer_descriptor.obj
 0004:00000150       $pdata$1$??0SecurityBufferDescriptor@@QEAA@AEBV?$Persistent@VArray@v8@@V?$NonCopyablePersistentTraits@VArray@v8@@@2@@Nan@@@Z 000000018002f150     security_buffer_descriptor.obj
 0004:0000015c       $pdata$2$??0SecurityBufferDescriptor@@QEAA@AEBV?$Persistent@VArray@v8@@V?$NonCopyablePersistentTraits@VArray@v8@@@2@@Nan@@@Z 000000018002f15c     security_buffer_descriptor.obj
 0004:00000168       $pdata$?bufferSize@SecurityBufferDescriptor@@QEAA_KXZ 000000018002f168     security_buffer_descriptor.obj
 0004:00000174       $pdata$2$?bufferSize@SecurityBufferDescriptor@@QEAA_KXZ 000000018002f174     security_buffer_descriptor.obj
 0004:00000180       $pdata$3$?bufferSize@SecurityBufferDescriptor@@QEAA_KXZ 000000018002f180     security_buffer_descriptor.obj
 0004:0000018c       $pdata$?toBuffer@SecurityBufferDescriptor@@QEAAPEADXZ 000000018002f18c     security_buffer_descriptor.obj
 0004:00000198       $pdata$?New@SecurityBufferDescriptor@@CAXAEBV?$FunctionCallbackInfo@VValue@v8@@@Nan@@@Z 000000018002f198     security_buffer_descriptor.obj
 0004:000001a4       $pdata$?ToBuffer@SecurityBufferDescriptor@@SAXAEBV?$FunctionCallbackInfo@VValue@v8@@@Nan@@@Z 000000018002f1a4     security_buffer_descriptor.obj
 0004:000001b0       $pdata$?Initialize@SecurityBufferDescriptor@@SAXV?$Local@VObject@v8@@@v8@@@Z 000000018002f1b0     security_buffer_descriptor.obj
 0004:000001bc       $pdata$?GetterCallbackWrapper@imp@Nan@@YAXV?$Local@VName@v8@@@v8@@AEBV?$PropertyCallbackInfo@VValue@v8@@@4@@Z 000000018002f1bc     security_context.obj
 0004:000001c8       $pdata$?NewInstance@Nan@@YA?AV?$MaybeLocal@VObject@v8@@@v8@@V?$Local@VFunction@v8@@@3@@Z 000000018002f1c8     security_context.obj
 0004:000001d4       $pdata$?Call@Callback@Nan@@QEBA?AV?$Local@VValue@v8@@@v8@@HQEAV34@@Z 000000018002f1d4     security_context.obj
 0004:000001e0       $pdata$?SetAccessor@Nan@@YAXV?$Local@VObjectTemplate@v8@@@v8@@V?$Local@VString@v8@@@3@P6AX1AEBV?$PropertyCallbackInfo@VValue@v8@@@1@@ZP6AX1V?$Local@VValue@v8@@@3@AEBV?$PropertyCallbackInfo@X@1@@Z4W4AccessControl@3@W4PropertyAttribute@3@V?$Local@VAccessorSignature@v8@@@3@@Z 000000018002f1e0     security_context.obj
 0004:000001ec       $pdata$?HasInstance@SecurityBufferDescriptor@@SA_NV?$Local@VValue@v8@@@v8@@@Z 000000018002f1ec     security_context.obj
 0004:000001f8       $pdata$?After@@YAXPEAUuv_work_s@@@Z 000000018002f1f8     security_context.obj
 0004:00000204       $pdata$0$?After@@YAXPEAUuv_work_s@@@Z 000000018002f204     security_context.obj
 0004:00000210       $pdata$1$?After@@YAXPEAUuv_work_s@@@Z 000000018002f210     security_context.obj
 0004:0000021c       $pdata$??_GSecurityContext@@UEAAPEAXI@Z 000000018002f21c     security_context.obj
 0004:00000228       $pdata$?New@SecurityContext@@SAXAEBV?$FunctionCallbackInfo@VValue@v8@@@Nan@@@Z 000000018002f228     security_context.obj
 0004:00000234       $pdata$?_initializeContext@@YAXPEAVWorker@@@Z 000000018002f234     security_context.obj
 0004:00000240       $pdata$7$?_initializeContext@@YAXPEAVWorker@@@Z 000000018002f240     security_context.obj
 0004:0000024c       $pdata$8$?_initializeContext@@YAXPEAVWorker@@@Z 000000018002f24c     security_context.obj
 0004:00000258       $pdata$9$?_initializeContext@@YAXPEAVWorker@@@Z 000000018002f258     security_context.obj
 0004:00000264       $pdata$?_map_decryptMessage@@YA?AV?$Local@VValue@v8@@@v8@@PEAVWorker@@@Z 000000018002f264     security_context.obj
 0004:00000264       $pdata$?_map_initializeContextStep@@YA?AV?$Local@VValue@v8@@@v8@@PEAVWorker@@@Z 000000018002f264     security_context.obj
 0004:00000264       $pdata$?_map_encryptMessage@@YA?AV?$Local@VValue@v8@@@v8@@PEAVWorker@@@Z 000000018002f264     security_context.obj
 0004:00000264       $pdata$?_map_initializeContext@@YA?AV?$Local@VValue@v8@@@v8@@PEAVWorker@@@Z 000000018002f264     security_context.obj
 0004:00000270       $pdata$?InitializeContext@SecurityContext@@SAXAEBV?$FunctionCallbackInfo@VValue@v8@@@Nan@@@Z 000000018002f270     security_context.obj
 0004:0000027c       $pdata$2$?InitializeContext@SecurityContext@@SAXAEBV?$FunctionCallbackInfo@VValue@v8@@@Nan@@@Z 000000018002f27c     security_context.obj
 0004:00000288       $pdata$3$?InitializeContext@SecurityContext@@SAXAEBV?$FunctionCallbackInfo@VValue@v8@@@Nan@@@Z 000000018002f288     security_context.obj
 0004:00000294       $pdata$?PayloadGetter@SecurityContext@@SAXV?$Local@VString@v8@@@v8@@AEBV?$PropertyCallbackInfo@VValue@v8@@@Nan@@@Z 000000018002f294     security_context.obj
 0004:000002a0       $pdata$?HasContextGetter@SecurityContext@@SAXV?$Local@VString@v8@@@v8@@AEBV?$PropertyCallbackInfo@VValue@v8@@@Nan@@@Z 000000018002f2a0     security_context.obj
 0004:000002ac       $pdata$?_initializeContextStep@@YAXPEAVWorker@@@Z 000000018002f2ac     security_context.obj
 0004:000002b8       $pdata$7$?_initializeContextStep@@YAXPEAVWorker@@@Z 000000018002f2b8     security_context.obj
 0004:000002c4       $pdata$8$?_initializeContextStep@@YAXPEAVWorker@@@Z 000000018002f2c4     security_context.obj
 0004:000002d0       $pdata$9$?_initializeContextStep@@YAXPEAVWorker@@@Z 000000018002f2d0     security_context.obj
 0004:000002dc       $pdata$?InitalizeStep@SecurityContext@@SAXAEBV?$FunctionCallbackInfo@VValue@v8@@@Nan@@@Z 000000018002f2dc     security_context.obj
 0004:000002e8       $pdata$2$?InitalizeStep@SecurityContext@@SAXAEBV?$FunctionCallbackInfo@VValue@v8@@@Nan@@@Z 000000018002f2e8     security_context.obj
 0004:000002f4       $pdata$3$?InitalizeStep@SecurityContext@@SAXAEBV?$FunctionCallbackInfo@VValue@v8@@@Nan@@@Z 000000018002f2f4     security_context.obj
 0004:00000300       $pdata$?_encryptMessage@@YAXPEAVWorker@@@Z 000000018002f300     security_context.obj
 0004:0000030c       $pdata$?EncryptMessage@SecurityContext@@SAXAEBV?$FunctionCallbackInfo@VValue@v8@@@Nan@@@Z 000000018002f30c     security_context.obj
 0004:00000318       $pdata$4$?EncryptMessage@SecurityContext@@SAXAEBV?$FunctionCallbackInfo@VValue@v8@@@Nan@@@Z 000000018002f318     security_context.obj
 0004:00000324       $pdata$5$?EncryptMessage@SecurityContext@@SAXAEBV?$FunctionCallbackInfo@VValue@v8@@@Nan@@@Z 000000018002f324     security_context.obj
 0004:00000330       $pdata$?_decryptMessage@@YAXPEAVWorker@@@Z 000000018002f330     security_context.obj
 0004:0000033c       $pdata$?DecryptMessage@SecurityContext@@SAXAEBV?$FunctionCallbackInfo@VValue@v8@@@Nan@@@Z 000000018002f33c     security_context.obj
 0004:00000348       $pdata$4$?DecryptMessage@SecurityContext@@SAXAEBV?$FunctionCallbackInfo@VValue@v8@@@Nan@@@Z 000000018002f348     security_context.obj
 0004:00000354       $pdata$5$?DecryptMessage@SecurityContext@@SAXAEBV?$FunctionCallbackInfo@VValue@v8@@@Nan@@@Z 000000018002f354     security_context.obj
 0004:00000360       $pdata$?_queryContextAttributes@@YAXPEAVWorker@@@Z 000000018002f360     security_context.obj
 0004:0000036c       $pdata$?_map_queryContextAttributes@@YA?AV?$Local@VValue@v8@@@v8@@PEAVWorker@@@Z 000000018002f36c     security_context.obj
 0004:00000378       $pdata$0$?_map_queryContextAttributes@@YA?AV?$Local@VValue@v8@@@v8@@PEAVWorker@@@Z 000000018002f378     security_context.obj
 0004:00000384       $pdata$2$?_map_queryContextAttributes@@YA?AV?$Local@VValue@v8@@@v8@@PEAVWorker@@@Z 000000018002f384     security_context.obj
 0004:00000390       $pdata$3$?_map_queryContextAttributes@@YA?AV?$Local@VValue@v8@@@v8@@PEAVWorker@@@Z 000000018002f390     security_context.obj
 0004:0000039c       $pdata$4$?_map_queryContextAttributes@@YA?AV?$Local@VValue@v8@@@v8@@PEAVWorker@@@Z 000000018002f39c     security_context.obj
 0004:000003a8       $pdata$?QueryContextAttributesA@SecurityContext@@SAXAEBV?$FunctionCallbackInfo@VValue@v8@@@Nan@@@Z 000000018002f3a8     security_context.obj
 0004:000003b4       $pdata$2$?QueryContextAttributesA@SecurityContext@@SAXAEBV?$FunctionCallbackInfo@VValue@v8@@@Nan@@@Z 000000018002f3b4     security_context.obj
 0004:000003c0       $pdata$4$?QueryContextAttributesA@SecurityContext@@SAXAEBV?$FunctionCallbackInfo@VValue@v8@@@Nan@@@Z 000000018002f3c0     security_context.obj
 0004:000003cc       $pdata$7$?QueryContextAttributesA@SecurityContext@@SAXAEBV?$FunctionCallbackInfo@VValue@v8@@@Nan@@@Z 000000018002f3cc     security_context.obj
 0004:000003d8       $pdata$8$?QueryContextAttributesA@SecurityContext@@SAXAEBV?$FunctionCallbackInfo@VValue@v8@@@Nan@@@Z 000000018002f3d8     security_context.obj
 0004:000003e4       $pdata$9$?QueryContextAttributesA@SecurityContext@@SAXAEBV?$FunctionCallbackInfo@VValue@v8@@@Nan@@@Z 000000018002f3e4     security_context.obj
 0004:000003f0       $pdata$?Initialize@SecurityContext@@SAXV?$Local@VObject@v8@@@v8@@@Z 000000018002f3f0     security_context.obj
 0004:000003fc       $pdata$??_GSecurityCredentials@@UEAAPEAXI@Z 000000018002f3fc     security_credentials.obj
 0004:00000408       $pdata$?New@SecurityCredentials@@CAXAEBV?$FunctionCallbackInfo@VValue@v8@@@Nan@@@Z 000000018002f408     security_credentials.obj
 0004:00000414       $pdata$?_authSSPIAquire@@YAXPEAVWorker@@@Z 000000018002f414     security_credentials.obj
 0004:00000420       $pdata$?_map_authSSPIAquire@@YA?AV?$Local@VValue@v8@@@v8@@PEAVWorker@@@Z 000000018002f420     security_credentials.obj
 0004:0000042c       $pdata$?Acquire@SecurityCredentials@@SAXAEBV?$FunctionCallbackInfo@VValue@v8@@@Nan@@@Z 000000018002f42c     security_credentials.obj
 0004:00000438       $pdata$0$?Acquire@SecurityCredentials@@SAXAEBV?$FunctionCallbackInfo@VValue@v8@@@Nan@@@Z 000000018002f438     security_credentials.obj
 0004:00000444       $pdata$2$?Acquire@SecurityCredentials@@SAXAEBV?$FunctionCallbackInfo@VValue@v8@@@Nan@@@Z 000000018002f444     security_credentials.obj
 0004:00000450       $pdata$3$?Acquire@SecurityCredentials@@SAXAEBV?$FunctionCallbackInfo@VValue@v8@@@Nan@@@Z 000000018002f450     security_credentials.obj
 0004:0000045c       $pdata$4$?Acquire@SecurityCredentials@@SAXAEBV?$FunctionCallbackInfo@VValue@v8@@@Nan@@@Z 000000018002f45c     security_credentials.obj
 0004:00000468       $pdata$?Initialize@SecurityCredentials@@SAXV?$Local@VObject@v8@@@v8@@@Z 000000018002f468     security_credentials.obj
 0004:00000474       $pdata$?After@SecurityCredentials@@CAXPEAUuv_work_s@@@Z 000000018002f474     security_credentials.obj
 0004:00000480       $pdata$0$?After@SecurityCredentials@@CAXPEAUuv_work_s@@@Z 000000018002f480     security_credentials.obj
 0004:0000048c       $pdata$1$?After@SecurityCredentials@@CAXPEAUuv_work_s@@@Z 000000018002f48c     security_credentials.obj
 0004:00000498       $pdata$2$?After@SecurityCredentials@@CAXPEAUuv_work_s@@@Z 000000018002f498     security_credentials.obj
 0004:000004a4       $pdata$3$?After@SecurityCredentials@@CAXPEAUuv_work_s@@@Z 000000018002f4a4     security_credentials.obj
 0004:000004b0       $pdata$?load_exe_hook@@YAP6A_JXZIPEAUDelayLoadInfo@@@Z 000000018002f4b0     win_delay_load_hook.obj
 0004:000004d4       $pdata$??2@YAPEAX_K@Z      000000018002f4d4     LIBCMT:new_scalar.obj
 0004:000004e0       $pdata$__scrt_acquire_startup_lock 000000018002f4e0     LIBCMT:utility.obj
 0004:000004ec       $pdata$__scrt_dllmain_after_initialize_c 000000018002f4ec     LIBCMT:utility.obj
 0004:000004f8       $pdata$__scrt_dllmain_before_initialize_c 000000018002f4f8     LIBCMT:utility.obj
 0004:00000504       $pdata$__scrt_dllmain_crt_thread_attach 000000018002f504     LIBCMT:utility.obj
 0004:00000510       $pdata$__scrt_dllmain_crt_thread_detach 000000018002f510     LIBCMT:utility.obj
 0004:0000051c       $pdata$__scrt_dllmain_exception_filter 000000018002f51c     LIBCMT:utility.obj
 0004:00000528       $pdata$__scrt_dllmain_uninitialize_c 000000018002f528     LIBCMT:utility.obj
 0004:00000534       $pdata$__scrt_dllmain_uninitialize_critical 000000018002f534     LIBCMT:utility.obj
 0004:00000540       $pdata$__scrt_initialize_crt 000000018002f540     LIBCMT:utility.obj
 0004:0000054c       $pdata$__scrt_initialize_onexit_tables 000000018002f54c     LIBCMT:utility.obj
 0004:00000558       $pdata$__scrt_is_nonwritable_in_current_image 000000018002f558     LIBCMT:utility.obj
 0004:00000564       $pdata$__scrt_release_startup_lock 000000018002f564     LIBCMT:utility.obj
 0004:00000570       $pdata$__scrt_uninitialize_crt 000000018002f570     LIBCMT:utility.obj
 0004:0000057c       $pdata$_onexit             000000018002f57c     LIBCMT:utility.obj
 0004:00000588       $pdata$atexit              000000018002f588     LIBCMT:utility.obj
 0004:00000594       $pdata$?dllmain_crt_dispatch@@YAHQEAUHINSTANCE__@@KQEAX@Z 000000018002f594     LIBCMT:dll_dllmain.obj
 0004:000005a0       $pdata$?dllmain_crt_process_attach@@YAHQEAUHINSTANCE__@@QEAX@Z 000000018002f5a0     LIBCMT:dll_dllmain.obj
 0004:000005ac       $pdata$?dllmain_crt_process_detach@@YAH_N@Z 000000018002f5ac     LIBCMT:dll_dllmain.obj
 0004:000005b8       $pdata$?dllmain_dispatch@@YAHQEAUHINSTANCE__@@KQEAX@Z 000000018002f5b8     LIBCMT:dll_dllmain.obj
 0004:000005c4       $pdata$_DllMainCRTStartup  000000018002f5c4     LIBCMT:dll_dllmain.obj
 0004:000005d0       $pdata$__raise_securityfailure 000000018002f5d0     LIBCMT:gs_report.obj
 0004:000005dc       $pdata$__report_gsfailure  000000018002f5dc     LIBCMT:gs_report.obj
 0004:000005e8       $pdata$__report_rangecheckfailure 000000018002f5e8     LIBCMT:gs_report.obj
 0004:000005f4       $pdata$__report_securityfailure 000000018002f5f4     LIBCMT:gs_report.obj
 0004:00000600       $pdata$capture_current_context 000000018002f600     LIBCMT:gs_report.obj
 0004:0000060c       $pdata$capture_previous_context 000000018002f60c     LIBCMT:gs_report.obj
 0004:00000618       $pdata$??0bad_alloc@std@@QEAA@AEBV01@@Z 000000018002f618     LIBCMT:throw_bad_alloc.obj
 0004:00000624       $pdata$??0bad_array_new_length@std@@QEAA@AEBV01@@Z 000000018002f624     LIBCMT:throw_bad_alloc.obj
 0004:00000630       $pdata$??0exception@std@@QEAA@AEBV01@@Z 000000018002f630     LIBCMT:throw_bad_alloc.obj
 0004:0000063c       $pdata$??_Gbad_exception@std@@UEAAPEAXI@Z 000000018002f63c     libvcruntime:frame.obj
 0004:0000063c       $pdata$??_Gbad_array_new_length@std@@UEAAPEAXI@Z 000000018002f63c     LIBCMT:throw_bad_alloc.obj
 0004:0000063c       $pdata$??_Gexception@std@@UEAAPEAXI@Z 000000018002f63c     LIBCMT:throw_bad_alloc.obj
 0004:0000063c       $pdata$??_Gbad_alloc@std@@UEAAPEAXI@Z 000000018002f63c     LIBCMT:throw_bad_alloc.obj
 0004:00000648       $pdata$?__scrt_throw_std_bad_alloc@@YAXXZ 000000018002f648     LIBCMT:throw_bad_alloc.obj
 0004:00000654       $pdata$?__scrt_throw_std_bad_array_new_length@@YAXXZ 000000018002f654     LIBCMT:throw_bad_alloc.obj
 0004:00000660       $pdata$__isa_available_init 000000018002f660     LIBCMT:_cpu_disp_.obj
 0004:0000066c       $pdata$__scrt_fastfail     000000018002f66c     LIBCMT:utility_desktop.obj
 0004:00000678       $pdata$__security_init_cookie 000000018002f678     LIBCMT:gs_support.obj
 0004:00000684       $pdata$__scrt_initialize_default_local_stdio_options 000000018002f684     LIBCMT:default_local_stdio_options.obj
 0004:00000690       $pdata$_RTC_Initialize     000000018002f690     LIBCMT:_initsect_.obj
 0004:0000069c       $pdata$_RTC_Terminate      000000018002f69c     LIBCMT:_initsect_.obj
 0004:000006a8       $pdata$??_Gtype_info@@UEAAPEAXI@Z 000000018002f6a8     LIBCMT:std_type_info_static.obj
 0004:000006b4       $pdata$__vcrt_initialize   000000018002f6b4     libvcruntime:initialization.obj
 0004:000006c0       $pdata$__vcrt_thread_attach 000000018002f6c0     libvcruntime:initialization.obj
 0004:000006cc       $pdata$__vcrt_thread_detach 000000018002f6cc     libvcruntime:initialization.obj
 0004:000006d8       $pdata$__vcrt_uninitialize 000000018002f6d8     libvcruntime:initialization.obj
 0004:000006e4       $pdata$__vcrt_uninitialize_critical 000000018002f6e4     libvcruntime:initialization.obj
 0004:000006f0       $pdata$__C_specific_handler 000000018002f6f0     libvcruntime:_riscchandler_.obj
 0004:000006fc       $pdata$__std_exception_copy 000000018002f6fc     libvcruntime:std_exception.obj
 0004:00000708       $pdata$__std_exception_destroy 000000018002f708     libvcruntime:std_exception.obj
 0004:00000714       $pdata$_CxxThrowException  000000018002f714     libvcruntime:throw.obj
 0004:00000738       $pdata$__std_type_info_destroy_list 000000018002f738     libvcruntime:std_type_info.obj
 0004:00000744       $pdata$__vcrt_freefls      000000018002f744     libvcruntime:per_thread_data.obj
 0004:00000750       $pdata$__vcrt_freeptd      000000018002f750     libvcruntime:per_thread_data.obj
 0004:0000075c       $pdata$__vcrt_getptd       000000018002f75c     libvcruntime:per_thread_data.obj
 0004:00000768       $pdata$__vcrt_getptd_noexit 000000018002f768     libvcruntime:per_thread_data.obj
 0004:00000774       $pdata$__vcrt_initialize_ptd 000000018002f774     libvcruntime:per_thread_data.obj
 0004:00000780       $pdata$__vcrt_uninitialize_ptd 000000018002f780     libvcruntime:per_thread_data.obj
 0004:0000078c       $pdata$__vcrt_initialize_locks 000000018002f78c     libvcruntime:locks.obj
 0004:00000798       $pdata$__vcrt_uninitialize_locks 000000018002f798     libvcruntime:locks.obj
 0004:000007a4       $pdata$?try_get_function@@YAPEAXW4function_id@?A0xcc2f1bd3@@QEBDQEBW4module_id@2@2@Z 000000018002f7a4     libvcruntime:winapi_downlevel.obj
 0004:000007b0       $pdata$__vcrt_FlsAlloc     000000018002f7b0     libvcruntime:winapi_downlevel.obj
 0004:000007bc       $pdata$__vcrt_FlsFree      000000018002f7bc     libvcruntime:winapi_downlevel.obj
 0004:000007c8       $pdata$__vcrt_FlsGetValue  000000018002f7c8     libvcruntime:winapi_downlevel.obj
 0004:000007d4       $pdata$__vcrt_FlsSetValue  000000018002f7d4     libvcruntime:winapi_downlevel.obj
 0004:000007e0       $pdata$__vcrt_InitializeCriticalSectionEx 000000018002f7e0     libvcruntime:winapi_downlevel.obj
 0004:000007ec       $pdata$__vcrt_initialize_winapi_thunks 000000018002f7ec     libvcruntime:winapi_downlevel.obj
 0004:000007f8       $pdata$__vcrt_uninitialize_winapi_thunks 000000018002f7f8     libvcruntime:winapi_downlevel.obj
 0004:00000828       $pdata$__DestructExceptionObject 000000018002f828     libvcruntime:ehhelpers.obj
 0004:00000834       $pdata$_IsExceptionObjectToBeDestroyed 000000018002f834     libvcruntime:ehhelpers.obj
 0004:00000840       $pdata$__FrameUnwindFilter 000000018002f840     libvcruntime:ehhelpers.obj
 0004:0000084c       $pdata$??$_CallSETranslator@V__FrameHandler3@@@@YAHPEAUEHExceptionRecord@@PEA_KPEAU_CONTEXT@@PEAU_xDISPATCHER_CONTEXT@@PEBU_s_FuncInfo@@K1@Z 000000018002f84c     libvcruntime:risctrnsctrl.obj
 0004:00000858       $pdata$?CatchTryBlock@__FrameHandler3@@SAPEBU_s_TryBlockMapEntry@@PEBU_s_FuncInfo@@H@Z 000000018002f858     libvcruntime:risctrnsctrl.obj
 0004:00000864       $pdata$?ExecutionInCatch@__FrameHandler3@@SA_NPEAU_xDISPATCHER_CONTEXT@@PEBU_s_FuncInfo@@@Z 000000018002f864     libvcruntime:risctrnsctrl.obj
 0004:00000870       $pdata$?FrameUnwindToEmptyState@__FrameHandler3@@SAXPEA_KPEAU_xDISPATCHER_CONTEXT@@PEBU_s_FuncInfo@@@Z 000000018002f870     libvcruntime:risctrnsctrl.obj
 0004:0000087c       $pdata$?GetEstablisherFrame@__FrameHandler3@@SAPEA_KPEA_KPEAU_xDISPATCHER_CONTEXT@@PEBU_s_FuncInfo@@0@Z 000000018002f87c     libvcruntime:risctrnsctrl.obj
 0004:00000888       $pdata$?GetRangeOfTrysToCheck@__FrameHandler3@@SA?AU?$pair@Viterator@TryBlockMap@__FrameHandler3@@V123@@std@@AEAVTryBlockMap@1@HH@Z 000000018002f888     libvcruntime:risctrnsctrl.obj
 0004:00000894       $pdata$?UnwindNestedFrames@__FrameHandler3@@SAXPEA_KPEAUEHExceptionRecord@@PEAU_CONTEXT@@0PEAXPEBU_s_FuncInfo@@HHPEBU_s_HandlerType@@PEAU_xDISPATCHER_CONTEXT@@E@Z 000000018002f894     libvcruntime:risctrnsctrl.obj
 0004:000008a0       $pdata$_CreateFrameInfo    000000018002f8a0     libvcruntime:risctrnsctrl.obj
 0004:000008ac       $pdata$_FindAndUnlinkFrame 000000018002f8ac     libvcruntime:risctrnsctrl.obj
 0004:000008b8       $pdata$_GetImageBase       000000018002f8b8     libvcruntime:risctrnsctrl.obj
 0004:000008c4       $pdata$_GetThrowImageBase  000000018002f8c4     libvcruntime:risctrnsctrl.obj
 0004:000008d0       $pdata$_SetImageBase       000000018002f8d0     libvcruntime:risctrnsctrl.obj
 0004:000008dc       $pdata$_SetThrowImageBase  000000018002f8dc     libvcruntime:risctrnsctrl.obj
 0004:000008e8       $pdata$__CxxFrameHandler3  000000018002f8e8     libvcruntime:risctrnsctrl.obj
 0004:0000090c       $pdata$?GetCurrentState@__FrameHandler3@@SAHPEA_KPEAU_xDISPATCHER_CONTEXT@@PEBU_s_FuncInfo@@@Z 000000018002f90c     libvcruntime:ehstate.obj
 0004:00000918       $pdata$?GetUnwindTryBlock@__FrameHandler3@@SAHPEA_KPEAU_xDISPATCHER_CONTEXT@@PEBU_s_FuncInfo@@@Z 000000018002f918     libvcruntime:ehstate.obj
 0004:00000924       $pdata$?SetUnwindTryBlock@__FrameHandler3@@SAXPEA_KPEAU_xDISPATCHER_CONTEXT@@PEBU_s_FuncInfo@@H@Z 000000018002f924     libvcruntime:ehstate.obj
 0004:00000930       $pdata$?StateFromIp@__FrameHandler3@@SAHPEBU_s_FuncInfo@@PEAU_xDISPATCHER_CONTEXT@@_K@Z 000000018002f930     libvcruntime:ehstate.obj
 0004:0000093c       $pdata$??$BuildCatchObjectHelperInternal@$$CBU_s_HandlerType@@@@YAHPEAUEHExceptionRecord@@PEAXPEBU_s_HandlerType@@PEBU_s_CatchableType@@@Z 000000018002f93c     libvcruntime:frame.obj
 0004:00000948       $pdata$??$BuildCatchObjectInternal@$$CBU_s_HandlerType@@@@YAXPEAUEHExceptionRecord@@PEAXPEBU_s_HandlerType@@PEBU_s_CatchableType@@@Z 000000018002f948     libvcruntime:frame.obj
 0004:00000954       $pdata$??$CatchIt@V__FrameHandler3@@@@YAXPEAUEHExceptionRecord@@PEA_KPEAU_CONTEXT@@PEAU_xDISPATCHER_CONTEXT@@PEBU_s_FuncInfo@@PEBU_s_HandlerType@@PEBU_s_CatchableType@@PEBU_s_TryBlockMapEntry@@H1EE@Z 000000018002f954     libvcruntime:frame.obj
 0004:00000960       $pdata$??$FindHandler@V__FrameHandler3@@@@YAXPEAUEHExceptionRecord@@PEA_KPEAU_CONTEXT@@PEAU_xDISPATCHER_CONTEXT@@PEBU_s_FuncInfo@@EH1@Z 000000018002f960     libvcruntime:frame.obj
 0004:0000096c       $pdata$??$FindHandlerForForeignException@V__FrameHandler3@@@@YAXPEAUEHExceptionRecord@@PEA_KPEAU_CONTEXT@@PEAU_xDISPATCHER_CONTEXT@@PEBU_s_FuncInfo@@HH1@Z 000000018002f96c     libvcruntime:frame.obj
 0004:00000978       $pdata$??$TypeMatchHelper@$$CBU_s_HandlerType@@@@YAHPEBU_s_HandlerType@@PEBU_s_CatchableType@@PEBU_s_ThrowInfo@@@Z 000000018002f978     libvcruntime:frame.obj
 0004:00000984       $pdata$??$__InternalCxxFrameHandler@V__FrameHandler3@@@@YA?AW4_EXCEPTION_DISPOSITION@@PEAUEHExceptionRecord@@PEA_KPEAU_CONTEXT@@PEAU_xDISPATCHER_CONTEXT@@PEBU_s_FuncInfo@@H1E@Z 000000018002f984     libvcruntime:frame.obj
 0004:00000990       $pdata$??0bad_exception@std@@QEAA@AEBV01@@Z 000000018002f990     libvcruntime:frame.obj
 0004:0000099c       $pdata$?CxxCallCatchBlock@__FrameHandler3@@SAPEAXPEAU_EXCEPTION_RECORD@@@Z 000000018002f99c     libvcruntime:frame.obj
 0004:000009a8       $pdata$?ExFilterRethrow@@YAHPEAU_EXCEPTION_POINTERS@@PEAUEHExceptionRecord@@PEAH@Z 000000018002f9a8     libvcruntime:frame.obj
 0004:000009b4       $pdata$?FrameUnwindToState@__FrameHandler3@@SAXPEA_KPEAU_xDISPATCHER_CONTEXT@@PEBU_s_FuncInfo@@H@Z 000000018002f9b4     libvcruntime:frame.obj
 0004:000009c0       $pdata$?GetHandlerSearchState@__FrameHandler3@@SAHPEA_KPEAU_xDISPATCHER_CONTEXT@@PEBU_s_FuncInfo@@@Z 000000018002f9c0     libvcruntime:frame.obj
 0004:000009cc       $pdata$?IsInExceptionSpec@@YAEPEAUEHExceptionRecord@@PEBU_s_ESTypeList@@@Z 000000018002f9cc     libvcruntime:frame.obj
 0004:000009d8       $pdata$?Is_bad_exception_allowed@@YAEPEBU_s_ESTypeList@@@Z 000000018002f9d8     libvcruntime:frame.obj
 0004:000009fc       $pdata$??$common_assert_to_message_box@_W@@YAXQEB_W0IQEAX@Z 000000018002f9fc     libucrt:assert.obj
 0004:00000a08       $pdata$??$common_assert_to_message_box_build_string@_W@@YAXQEA_W_KQEB_W2IQEAX@Z 000000018002fa08     libucrt:assert.obj
 0004:00000a14       $pdata$??$common_assert_to_stderr@_W@@YAXQEB_W0I@Z 000000018002fa14     libucrt:assert.obj
 0004:00000a20       $pdata$_wassert            000000018002fa20     libucrt:assert.obj
 0004:00000a2c       $pdata$fwprintf            000000018002fa2c     libucrt:assert.obj
 0004:00000a38       $pdata$swprintf            000000018002fa38     libucrt:assert.obj
 0004:00000a44       $pdata$__acrt_initialize_stdio 000000018002fa44     libucrt:_file.obj
 0004:00000a50       $pdata$__acrt_uninitialize_stdio 000000018002fa50     libucrt:_file.obj
 0004:00000a5c       $pdata$??$?RV<lambda_0d412022a4b28cc8a401ea49574e8ae6>@@AEAV<lambda_a775ed57af18ba8e4d5dc780aa9068fe>@@V<lambda_975a71a6baa488a08f4e15f6b0339b9e>@@@?$__crt_seh_guarded_call@H@@QEAAH$$QEAV<lambda_0d412022a4b28cc8a401ea49574e8ae6>@@AEAV<lambda_a775ed57af18ba8e4d5dc780aa9068fe>@@$$QEAV<lambda_975a71a6baa488a08f4e15f6b0339b9e>@@@Z 000000018002fa5c     libucrt:output.obj
 0004:00000a68       $pdata$??$?RV<lambda_a62c933ada0517137acf5807a1eeac1f>@@AEAV<lambda_a31071773b9a94e445cbd5d04ef99106>@@V<lambda_56065050dbf3ada7e59a83db45153de3>@@@?$__crt_seh_guarded_call@H@@QEAAH$$QEAV<lambda_a62c933ada0517137acf5807a1eeac1f>@@AEAV<lambda_a31071773b9a94e445cbd5d04ef99106>@@$$QEAV<lambda_56065050dbf3ada7e59a83db45153de3>@@@Z 000000018002fa68     libucrt:output.obj
 0004:00000a74       $pdata$??$common_vsprintf@Vstandard_base@__crt_stdio_output@@_W@@YAH_KQEA_W0QEB_WQEAU__crt_locale_pointers@@QEAD@Z 000000018002fa74     libucrt:output.obj
 0004:00000a80       $pdata$??$ensure_buffer_is_big_enough@D@formatting_buffer@__crt_stdio_output@@QEAA_N_K@Z 000000018002fa80     libucrt:output.obj
 0004:00000a8c       $pdata$??$ensure_buffer_is_big_enough@_W@formatting_buffer@__crt_stdio_output@@QEAA_N_K@Z 000000018002fa8c     libucrt:output.obj
 0004:00000a98       $pdata$??$type_case_integer_parse_into_buffer@I@?$output_processor@DV?$stream_output_adapter@D@__crt_stdio_output@@V?$standard_base@DV?$stream_output_adapter@D@__crt_stdio_output@@@2@@__crt_stdio_output@@AEAAXII_N@Z 000000018002fa98     libucrt:output.obj
 0004:00000aa4       $pdata$??$type_case_integer_parse_into_buffer@I@?$output_processor@_WV?$string_output_adapter@_W@__crt_stdio_output@@V?$standard_base@_WV?$string_output_adapter@_W@__crt_stdio_output@@@2@@__crt_stdio_output@@AEAAXII_N@Z 000000018002faa4     libucrt:output.obj
 0004:00000aa4       $pdata$??$type_case_integer_parse_into_buffer@I@?$output_processor@_WV?$stream_output_adapter@_W@__crt_stdio_output@@V?$standard_base@_WV?$stream_output_adapter@_W@__crt_stdio_output@@@2@@__crt_stdio_output@@AEAAXII_N@Z 000000018002faa4     libucrt:output.obj
 0004:00000ab0       $pdata$??$type_case_integer_parse_into_buffer@_K@?$output_processor@DV?$stream_output_adapter@D@__crt_stdio_output@@V?$standard_base@DV?$stream_output_adapter@D@__crt_stdio_output@@@2@@__crt_stdio_output@@AEAAX_KI_N@Z 000000018002fab0     libucrt:output.obj
 0004:00000abc       $pdata$??$type_case_integer_parse_into_buffer@_K@?$output_processor@_WV?$string_output_adapter@_W@__crt_stdio_output@@V?$standard_base@_WV?$string_output_adapter@_W@__crt_stdio_output@@@2@@__crt_stdio_output@@AEAAX_KI_N@Z 000000018002fabc     libucrt:output.obj
 0004:00000abc       $pdata$??$type_case_integer_parse_into_buffer@_K@?$output_processor@_WV?$stream_output_adapter@_W@__crt_stdio_output@@V?$standard_base@_WV?$stream_output_adapter@_W@__crt_stdio_output@@@2@@__crt_stdio_output@@AEAAX_KI_N@Z 000000018002fabc     libucrt:output.obj
 0004:00000ac8       $pdata$??$write_multiple_characters@V?$stream_output_adapter@D@__crt_stdio_output@@D@__crt_stdio_output@@YAXAEBV?$stream_output_adapter@D@0@DHQEAH@Z 000000018002fac8     libucrt:output.obj
 0004:00000ad4       $pdata$??$write_multiple_characters@V?$stream_output_adapter@_W@__crt_stdio_output@@D@__crt_stdio_output@@YAXAEBV?$stream_output_adapter@_W@0@DHQEAH@Z 000000018002fad4     libucrt:output.obj
 0004:00000ae0       $pdata$??$write_multiple_characters@V?$string_output_adapter@_W@__crt_stdio_output@@D@__crt_stdio_output@@YAXAEBV?$string_output_adapter@_W@0@DHQEAH@Z 000000018002fae0     libucrt:output.obj
 0004:00000aec       $pdata$??0_LocaleUpdate@@QEAA@QEAU__crt_locale_pointers@@@Z 000000018002faec     libucrt:output.obj
 0004:00000af8       $pdata$??R<lambda_a31071773b9a94e445cbd5d04ef99106>@@QEBAHXZ 000000018002faf8     libucrt:output.obj
 0004:00000b04       $pdata$??R<lambda_a775ed57af18ba8e4d5dc780aa9068fe>@@QEBAHXZ 000000018002fb04     libucrt:output.obj
 0004:00000b10       $pdata$?force_decimal_point@__crt_stdio_output@@YAXPEADQEAU__crt_locale_pointers@@@Z 000000018002fb10     libucrt:output.obj
 0004:00000b1c       $pdata$?parse_int_from_format_string@?$output_processor@DV?$stream_output_adapter@D@__crt_stdio_output@@V?$standard_base@DV?$stream_output_adapter@D@__crt_stdio_output@@@2@@__crt_stdio_output@@AEAA_NQEAH@Z 000000018002fb1c     libucrt:output.obj
 0004:00000b28       $pdata$?parse_int_from_format_string@?$output_processor@_WV?$stream_output_adapter@_W@__crt_stdio_output@@V?$standard_base@_WV?$stream_output_adapter@_W@__crt_stdio_output@@@2@@__crt_stdio_output@@AEAA_NQEAH@Z 000000018002fb28     libucrt:output.obj
 0004:00000b28       $pdata$?parse_int_from_format_string@?$output_processor@_WV?$string_output_adapter@_W@__crt_stdio_output@@V?$standard_base@_WV?$string_output_adapter@_W@__crt_stdio_output@@@2@@__crt_stdio_output@@AEAA_NQEAH@Z 000000018002fb28     libucrt:output.obj
 0004:00000b34       $pdata$?process@?$output_processor@DV?$stream_output_adapter@D@__crt_stdio_output@@V?$standard_base@DV?$stream_output_adapter@D@__crt_stdio_output@@@2@@__crt_stdio_output@@QEAAHXZ 000000018002fb34     libucrt:output.obj
 0004:00000b40       $pdata$?process@?$output_processor@_WV?$stream_output_adapter@_W@__crt_stdio_output@@V?$standard_base@_WV?$stream_output_adapter@_W@__crt_stdio_output@@@2@@__crt_stdio_output@@QEAAHXZ 000000018002fb40     libucrt:output.obj
 0004:00000b4c       $pdata$?process@?$output_processor@_WV?$string_output_adapter@_W@__crt_stdio_output@@V?$standard_base@_WV?$string_output_adapter@_W@__crt_stdio_output@@@2@@__crt_stdio_output@@QEAAHXZ 000000018002fb4c     libucrt:output.obj
 0004:00000b58       $pdata$?state_case_normal@?$output_processor@DV?$stream_output_adapter@D@__crt_stdio_output@@V?$standard_base@DV?$stream_output_adapter@D@__crt_stdio_output@@@2@@__crt_stdio_output@@AEAA_NXZ 000000018002fb58     libucrt:output.obj
 0004:00000b64       $pdata$?state_case_normal_tchar@?$output_processor@DV?$stream_output_adapter@D@__crt_stdio_output@@V?$standard_base@DV?$stream_output_adapter@D@__crt_stdio_output@@@2@@__crt_stdio_output@@AEAA_ND@Z 000000018002fb64     libucrt:output.obj
 0004:00000b70       $pdata$?state_case_size@?$output_processor@DV?$stream_output_adapter@D@__crt_stdio_output@@V?$standard_base@DV?$stream_output_adapter@D@__crt_stdio_output@@@2@@__crt_stdio_output@@AEAA_NXZ 000000018002fb70     libucrt:output.obj
 0004:00000b7c       $pdata$?state_case_size@?$output_processor@_WV?$stream_output_adapter@_W@__crt_stdio_output@@V?$standard_base@_WV?$stream_output_adapter@_W@__crt_stdio_output@@@2@@__crt_stdio_output@@AEAA_NXZ 000000018002fb7c     libucrt:output.obj
 0004:00000b88       $pdata$?state_case_size@?$output_processor@_WV?$string_output_adapter@_W@__crt_stdio_output@@V?$standard_base@_WV?$string_output_adapter@_W@__crt_stdio_output@@@2@@__crt_stdio_output@@AEAA_NXZ 000000018002fb88     libucrt:output.obj
 0004:00000b94       $pdata$?state_case_type@?$output_processor@DV?$stream_output_adapter@D@__crt_stdio_output@@V?$standard_base@DV?$stream_output_adapter@D@__crt_stdio_output@@@2@@__crt_stdio_output@@AEAA_NXZ 000000018002fb94     libucrt:output.obj
 0004:00000ba0       $pdata$?state_case_type@?$output_processor@_WV?$stream_output_adapter@_W@__crt_stdio_output@@V?$standard_base@_WV?$stream_output_adapter@_W@__crt_stdio_output@@@2@@__crt_stdio_output@@AEAA_NXZ 000000018002fba0     libucrt:output.obj
 0004:00000bac       $pdata$?state_case_type@?$output_processor@_WV?$string_output_adapter@_W@__crt_stdio_output@@V?$standard_base@_WV?$string_output_adapter@_W@__crt_stdio_output@@@2@@__crt_stdio_output@@AEAA_NXZ 000000018002fbac     libucrt:output.obj
 0004:00000bb8       $pdata$?type_case_Z@?$output_processor@_WV?$stream_output_adapter@_W@__crt_stdio_output@@V?$standard_base@_WV?$stream_output_adapter@_W@__crt_stdio_output@@@2@@__crt_stdio_output@@AEAA_NXZ 000000018002fbb8     libucrt:output.obj
 0004:00000bb8       $pdata$?type_case_Z@?$output_processor@_WV?$string_output_adapter@_W@__crt_stdio_output@@V?$standard_base@_WV?$string_output_adapter@_W@__crt_stdio_output@@@2@@__crt_stdio_output@@AEAA_NXZ 000000018002fbb8     libucrt:output.obj
 0004:00000bc4       $pdata$?type_case_a@?$output_processor@DV?$stream_output_adapter@D@__crt_stdio_output@@V?$standard_base@DV?$stream_output_adapter@D@__crt_stdio_output@@@2@@__crt_stdio_output@@AEAA_NXZ 000000018002fbc4     libucrt:output.obj
 0004:00000bd0       $pdata$?type_case_a@?$output_processor@_WV?$stream_output_adapter@_W@__crt_stdio_output@@V?$standard_base@_WV?$stream_output_adapter@_W@__crt_stdio_output@@@2@@__crt_stdio_output@@AEAA_NXZ 000000018002fbd0     libucrt:output.obj
 0004:00000bd0       $pdata$?type_case_a@?$output_processor@_WV?$string_output_adapter@_W@__crt_stdio_output@@V?$standard_base@_WV?$string_output_adapter@_W@__crt_stdio_output@@@2@@__crt_stdio_output@@AEAA_NXZ 000000018002fbd0     libucrt:output.obj
 0004:00000bdc       $pdata$?type_case_c_tchar@?$output_processor@DV?$stream_output_adapter@D@__crt_stdio_output@@V?$standard_base@DV?$stream_output_adapter@D@__crt_stdio_output@@@2@@__crt_stdio_output@@AEAA_ND@Z 000000018002fbdc     libucrt:output.obj
 0004:00000be8       $pdata$?type_case_c_tchar@?$output_processor@_WV?$stream_output_adapter@_W@__crt_stdio_output@@V?$standard_base@_WV?$stream_output_adapter@_W@__crt_stdio_output@@@2@@__crt_stdio_output@@AEAA_N_W@Z 000000018002fbe8     libucrt:output.obj
 0004:00000be8       $pdata$?type_case_c_tchar@?$output_processor@_WV?$string_output_adapter@_W@__crt_stdio_output@@V?$standard_base@_WV?$string_output_adapter@_W@__crt_stdio_output@@@2@@__crt_stdio_output@@AEAA_N_W@Z 000000018002fbe8     libucrt:output.obj
 0004:00000bf4       $pdata$?type_case_integer@?$output_processor@DV?$stream_output_adapter@D@__crt_stdio_output@@V?$standard_base@DV?$stream_output_adapter@D@__crt_stdio_output@@@2@@__crt_stdio_output@@AEAA_NI_N@Z 000000018002fbf4     libucrt:output.obj
 0004:00000c00       $pdata$?type_case_integer@?$output_processor@_WV?$string_output_adapter@_W@__crt_stdio_output@@V?$standard_base@_WV?$string_output_adapter@_W@__crt_stdio_output@@@2@@__crt_stdio_output@@AEAA_NI_N@Z 000000018002fc00     libucrt:output.obj
 0004:00000c00       $pdata$?type_case_integer@?$output_processor@_WV?$stream_output_adapter@_W@__crt_stdio_output@@V?$standard_base@_WV?$stream_output_adapter@_W@__crt_stdio_output@@@2@@__crt_stdio_output@@AEAA_NI_N@Z 000000018002fc00     libucrt:output.obj
 0004:00000c0c       $pdata$?type_case_n@?$output_processor@_WV?$string_output_adapter@_W@__crt_stdio_output@@V?$standard_base@_WV?$string_output_adapter@_W@__crt_stdio_output@@@2@@__crt_stdio_output@@AEAA_NXZ 000000018002fc0c     libucrt:output.obj
 0004:00000c0c       $pdata$?type_case_n@?$output_processor@DV?$stream_output_adapter@D@__crt_stdio_output@@V?$standard_base@DV?$stream_output_adapter@D@__crt_stdio_output@@@2@@__crt_stdio_output@@AEAA_NXZ 000000018002fc0c     libucrt:output.obj
 0004:00000c0c       $pdata$?type_case_n@?$output_processor@_WV?$stream_output_adapter@_W@__crt_stdio_output@@V?$standard_base@_WV?$stream_output_adapter@_W@__crt_stdio_output@@@2@@__crt_stdio_output@@AEAA_NXZ 000000018002fc0c     libucrt:output.obj
 0004:00000c18       $pdata$?type_case_s@?$output_processor@DV?$stream_output_adapter@D@__crt_stdio_output@@V?$standard_base@DV?$stream_output_adapter@D@__crt_stdio_output@@@2@@__crt_stdio_output@@AEAA_NXZ 000000018002fc18     libucrt:output.obj
 0004:00000c24       $pdata$?type_case_s@?$output_processor@_WV?$stream_output_adapter@_W@__crt_stdio_output@@V?$standard_base@_WV?$stream_output_adapter@_W@__crt_stdio_output@@@2@@__crt_stdio_output@@AEAA_NXZ 000000018002fc24     libucrt:output.obj
 0004:00000c24       $pdata$?type_case_s@?$output_processor@_WV?$string_output_adapter@_W@__crt_stdio_output@@V?$standard_base@_WV?$string_output_adapter@_W@__crt_stdio_output@@@2@@__crt_stdio_output@@AEAA_NXZ 000000018002fc24     libucrt:output.obj
 0004:00000c30       $pdata$?validate_stream_is_ansi_if_required@?$__acrt_stdio_char_traits@D@@SA_NQEAU_iobuf@@@Z 000000018002fc30     libucrt:output.obj
 0004:00000c3c       $pdata$?write_stored_string_tchar@?$output_processor@DV?$stream_output_adapter@D@__crt_stdio_output@@V?$standard_base@DV?$stream_output_adapter@D@__crt_stdio_output@@@2@@__crt_stdio_output@@AEAA_ND@Z 000000018002fc3c     libucrt:output.obj
 0004:00000c48       $pdata$?write_stored_string_tchar@?$output_processor@_WV?$stream_output_adapter@_W@__crt_stdio_output@@V?$standard_base@_WV?$stream_output_adapter@_W@__crt_stdio_output@@@2@@__crt_stdio_output@@AEAA_N_W@Z 000000018002fc48     libucrt:output.obj
 0004:00000c54       $pdata$?write_stored_string_tchar@?$output_processor@_WV?$string_output_adapter@_W@__crt_stdio_output@@V?$standard_base@_WV?$string_output_adapter@_W@__crt_stdio_output@@@2@@__crt_stdio_output@@AEAA_N_W@Z 000000018002fc54     libucrt:output.obj
 0004:00000c60       $pdata$?write_string@?$string_output_adapter@_W@__crt_stdio_output@@QEBAXQEB_WHQEAHAEAV__crt_deferred_errno_cache@@@Z 000000018002fc60     libucrt:output.obj
 0004:00000c6c       $pdata$?write_string_impl@?$output_adapter_common@DV?$stream_output_adapter@D@__crt_stdio_output@@@__crt_stdio_output@@IEBAXQEBDHQEAHAEAV__crt_deferred_errno_cache@@@Z 000000018002fc6c     libucrt:output.obj
 0004:00000c78       $pdata$?write_string_impl@?$output_adapter_common@_WV?$stream_output_adapter@_W@__crt_stdio_output@@@__crt_stdio_output@@IEBAXQEB_WHQEAHAEAV__crt_deferred_errno_cache@@@Z 000000018002fc78     libucrt:output.obj
 0004:00000c84       $pdata$__stdio_common_vfprintf 000000018002fc84     libucrt:output.obj
 0004:00000c90       $pdata$__stdio_common_vfwprintf 000000018002fc90     libucrt:output.obj
 0004:00000c9c       $pdata$_strdup             000000018002fc9c     libucrt:strdup.obj
 0004:00000ca8       $pdata$_stricmp            000000018002fca8     libucrt:stricmp.obj
 0004:00000cb4       $pdata$_stricmp_l          000000018002fcb4     libucrt:stricmp.obj
 0004:00000cc0       $pdata$_callnewh           000000018002fcc0     libucrt:new_handler.obj
 0004:00000ccc       $pdata$_query_new_handler  000000018002fccc     libucrt:new_handler.obj
 0004:00000cd8       $pdata$_seh_filter_exe     000000018002fcd8     libucrt:exception_filter.obj
 0004:00000ce4       $pdata$??$?RV<lambda_d80eeec6fff315bfe5c115232f3240e3>@@AEAV<lambda_6e4b09c48022b2350581041d5f6b0c4c>@@V<lambda_2358e3775559c9db80273638284d5e45>@@@?$__crt_seh_guarded_call@X@@QEAAX$$QEAV<lambda_d80eeec6fff315bfe5c115232f3240e3>@@AEAV<lambda_6e4b09c48022b2350581041d5f6b0c4c>@@$$QEAV<lambda_2358e3775559c9db80273638284d5e45>@@@Z 000000018002fce4     libucrt:exit.obj
 0004:00000cf0       $pdata$??R<lambda_6e4b09c48022b2350581041d5f6b0c4c>@@QEBA@XZ 000000018002fcf0     libucrt:exit.obj
 0004:00000cfc       $pdata$?common_exit@@YAXHW4_crt_exit_cleanup_mode@@W4_crt_exit_return_mode@@@Z 000000018002fcfc     libucrt:exit.obj
 0004:00000d08       $pdata$?exit_or_terminate_process@@YAXI@Z 000000018002fd08     libucrt:exit.obj
 0004:00000d14       $pdata$?try_cor_exit_process@@YAXI@Z 000000018002fd14     libucrt:exit.obj
 0004:00000d20       $pdata$??$parse_command_line@D@@YAXPEADPEAPEAD0PEA_K2@Z 000000018002fd20     libucrt:argv_parsing.obj
 0004:00000d2c       $pdata$__acrt_allocate_buffer_for_argv 000000018002fd2c     libucrt:argv_parsing.obj
 0004:00000d38       $pdata$_configure_narrow_argv 000000018002fd38     libucrt:argv_parsing.obj
 0004:00000d44       $pdata$??$common_initialize_environment_nolock@D@@YAHXZ 000000018002fd44     libucrt:environment_initialization.obj
 0004:00000d50       $pdata$??$create_environment@D@@YAQEAPEADQEAD@Z 000000018002fd50     libucrt:environment_initialization.obj
 0004:00000d5c       $pdata$??$free_environment@D@@YAXQEAPEAD@Z 000000018002fd5c     libucrt:environment_initialization.obj
 0004:00000d5c       $pdata$??$free_environment@_W@@YAXQEAPEA_W@Z 000000018002fd5c     libucrt:environment_initialization.obj
 0004:00000d68       $pdata$??$uninitialize_environment_internal@D@@YAXAEAPEAPEAD@Z 000000018002fd68     libucrt:environment_initialization.obj
 0004:00000d74       $pdata$??$uninitialize_environment_internal@_W@@YAXAEAPEAPEA_W@Z 000000018002fd74     libucrt:environment_initialization.obj
 0004:00000d80       $pdata$__dcrt_uninitialize_environments_nolock 000000018002fd80     libucrt:environment_initialization.obj
 0004:00000d8c       $pdata$??$?RV<lambda_7777bce6b2f8c936911f934f8298dc43>@@AEAV<lambda_f03950bc5685219e0bcd2087efbe011e>@@V<lambda_3883c3dff614d5e0c5f61bb1ac94921c>@@@?$__crt_seh_guarded_call@H@@QEAAH$$QEAV<lambda_7777bce6b2f8c936911f934f8298dc43>@@AEAV<lambda_f03950bc5685219e0bcd2087efbe011e>@@$$QEAV<lambda_3883c3dff614d5e0c5f61bb1ac94921c>@@@Z 000000018002fd8c     libucrt:onexit.obj
 0004:00000d98       $pdata$??$?RV<lambda_8369fcb7c4df1e85de37618bd2b85f07>@@AEAV<lambda_a10e4b102d4a2c3aac6f4f48bbdf488f>@@V<lambda_5b7707bd6d7a0c4713179f36c7fd995d>@@@?$__crt_seh_guarded_call@H@@QEAAH$$QEAV<lambda_8369fcb7c4df1e85de37618bd2b85f07>@@AEAV<lambda_a10e4b102d4a2c3aac6f4f48bbdf488f>@@$$QEAV<lambda_5b7707bd6d7a0c4713179f36c7fd995d>@@@Z 000000018002fd98     libucrt:onexit.obj
 0004:00000da4       $pdata$??R<lambda_a10e4b102d4a2c3aac6f4f48bbdf488f>@@QEBAHXZ 000000018002fda4     libucrt:onexit.obj
 0004:00000db0       $pdata$??R<lambda_f03950bc5685219e0bcd2087efbe011e>@@QEBAHXZ 000000018002fdb0     libucrt:onexit.obj
 0004:00000dbc       $pdata$_execute_onexit_table 000000018002fdbc     libucrt:onexit.obj
 0004:00000dc8       $pdata$_register_onexit_function 000000018002fdc8     libucrt:onexit.obj
 0004:00000dd4       $pdata$initialize_c        000000018002fdd4     libucrt:initialization.obj
 0004:00000de0       $pdata$uninitialize_environment 000000018002fde0     libucrt:initialization.obj
 0004:00000dec       $pdata$initialize_pointers 000000018002fdec     libucrt:initialization.obj
 0004:00000df8       $pdata$uninitialize_allocated_memory 000000018002fdf8     libucrt:initialization.obj
 0004:00000e04       $pdata$uninitialize_allocated_io_buffers 000000018002fe04     libucrt:initialization.obj
 0004:00000e10       $pdata$__acrt_thread_attach 000000018002fe10     libucrt:initialization.obj
 0004:00000e1c       $pdata$__acrt_thread_detach 000000018002fe1c     libucrt:initialization.obj
 0004:00000e28       $pdata$__acrt_uninitialize 000000018002fe28     libucrt:initialization.obj
 0004:00000e34       $pdata$__acrt_uninitialize_critical 000000018002fe34     libucrt:initialization.obj
 0004:00000e40       $pdata$_initterm           000000018002fe40     libucrt:initterm.obj
 0004:00000e4c       $pdata$_initterm_e         000000018002fe4c     libucrt:initterm.obj
 0004:00000e58       $pdata$terminate           000000018002fe58     libucrt:terminate.obj
 0004:00000e64       $pdata$strcpy_s            000000018002fe64     libucrt:strcpy_s.obj
 0004:00000e70       $pdata$abort               000000018002fe70     libucrt:abort.obj
 0004:00000e7c       $pdata$??$parse_integer@KV?$c_string_character_source@D@__crt_strtox@@@__crt_strtox@@YAKQEAU__crt_locale_pointers@@V?$c_string_character_source@D@0@H_N@Z 000000018002fe7c     libucrt:atox.obj
 0004:00000e88       $pdata$??$parse_integer@KV?$c_string_character_source@_W@__crt_strtox@@@__crt_strtox@@YAKQEAU__crt_locale_pointers@@V?$c_string_character_source@_W@0@H_N@Z 000000018002fe88     libucrt:atox.obj
 0004:00000ea0       $pdata$__acrt_call_reportfault 000000018002fea0     libucrt:invalid_parameter.obj
 0004:00000eac       $pdata$_invalid_parameter  000000018002feac     libucrt:invalid_parameter.obj
 0004:00000eb8       $pdata$_invalid_parameter_noinfo 000000018002feb8     libucrt:invalid_parameter.obj
 0004:00000ec4       $pdata$_invoke_watson      000000018002fec4     libucrt:invalid_parameter.obj
 0004:00000ed0       $pdata$__acrt_errno_map_os_error 000000018002fed0     libucrt:errno.obj
 0004:00000edc       $pdata$__doserrno          000000018002fedc     libucrt:errno.obj
 0004:00000ee8       $pdata$_errno              000000018002fee8     libucrt:errno.obj
 0004:00000ef4       $pdata$??$common_xtox@K_W@@YAHKQEA_W_KI_N@Z 000000018002fef4     libucrt:xtoa.obj
 0004:00000f00       $pdata$??$common_xtox_s@K_W@@YAHKQEA_W_KI_N@Z 000000018002ff00     libucrt:xtoa.obj
 0004:00000f0c       $pdata$_itow_s             000000018002ff0c     libucrt:xtoa.obj
 0004:00000f18       $pdata$_set_error_mode     000000018002ff18     libucrt:set_error_mode.obj
 0004:00000f24       $pdata$wcscat_s            000000018002ff24     libucrt:wcscat_s.obj
 0004:00000f30       $pdata$wcscpy_s            000000018002ff30     libucrt:wcscpy_s.obj
 0004:00000f3c       $pdata$wcsncat_s           000000018002ff3c     libucrt:wcsncat_s.obj
 0004:00000f48       $pdata$__acrt_GetModuleFileNameA 000000018002ff48     libucrt:getmodulefilenamea.obj
 0004:00000f54       $pdata$__acrt_show_wide_message_box 000000018002ff54     libucrt:crtmbox.obj
 0004:00000f60       $pdata$??$?RV<lambda_842d9ff0dc9ef11c61343bbaebe7f885>@@AEAV<lambda_c5860995281e5c4ce005b3de8f5874ee>@@V<lambda_d90129c13df834fdcbf8d2b88dafcf2d>@@@?$__crt_seh_guarded_call@X@@QEAAX$$QEAV<lambda_842d9ff0dc9ef11c61343bbaebe7f885>@@AEAV<lambda_c5860995281e5c4ce005b3de8f5874ee>@@$$QEAV<lambda_d90129c13df834fdcbf8d2b88dafcf2d>@@@Z 000000018002ff60     libucrt:fflush.obj
 0004:00000f6c       $pdata$??$?RV<lambda_886d6c58226a84441f68b9f2b8217b83>@@AEAV<lambda_ab61a845afdef5b7c387490eaf3616ee>@@V<lambda_f7f22ab5edc0698d5f6905b0d3f44752>@@@?$__crt_seh_guarded_call@X@@QEAAX$$QEAV<lambda_886d6c58226a84441f68b9f2b8217b83>@@AEAV<lambda_ab61a845afdef5b7c387490eaf3616ee>@@$$QEAV<lambda_f7f22ab5edc0698d5f6905b0d3f44752>@@@Z 000000018002ff6c     libucrt:fflush.obj
 0004:00000f78       $pdata$??$?RV<lambda_c376a267cfb53b6959b3b692ec76b120>@@AEAV<lambda_9a32fed5bf61b6b509b2d3f6003082a1>@@V<lambda_572fbb9fa0ab338edf41edfd4b5fcc8d>@@@?$__crt_seh_guarded_call@H@@QEAAH$$QEAV<lambda_c376a267cfb53b6959b3b692ec76b120>@@AEAV<lambda_9a32fed5bf61b6b509b2d3f6003082a1>@@$$QEAV<lambda_572fbb9fa0ab338edf41edfd4b5fcc8d>@@@Z 000000018002ff78     libucrt:fflush.obj
 0004:00000f84       $pdata$?common_flush_all@@YAH_N@Z 000000018002ff84     libucrt:fflush.obj
 0004:00000f90       $pdata$__acrt_stdio_flush_nolock 000000018002ff90     libucrt:fflush.obj
 0004:00000f9c       $pdata$_fflush_nolock      000000018002ff9c     libucrt:fflush.obj
 0004:00000fa8       $pdata$fflush              000000018002ffa8     libucrt:fflush.obj
 0004:00000fb4       $pdata$??$?RV<lambda_84ec643ea9557e2f7dc01bb0e9624395>@@AEAV<lambda_ca71763b3c0644891230e4f79ea54fa6>@@V<lambda_439a761618c59b0600e24586724d733b>@@@?$__crt_seh_guarded_call@H@@QEAAH$$QEAV<lambda_84ec643ea9557e2f7dc01bb0e9624395>@@AEAV<lambda_ca71763b3c0644891230e4f79ea54fa6>@@$$QEAV<lambda_439a761618c59b0600e24586724d733b>@@@Z 000000018002ffb4     libucrt:setvbuf.obj
 0004:00000fc0       $pdata$??R<lambda_ca71763b3c0644891230e4f79ea54fa6>@@QEBAHXZ 000000018002ffc0     libucrt:setvbuf.obj
 0004:00000fcc       $pdata$setvbuf             000000018002ffcc     libucrt:setvbuf.obj
 0004:00000fd8       $pdata$??$?RV<lambda_450d765d439847d4c735a33c368b5fc0>@@AEAV<lambda_44731a7d0e6d81c3e6aa82d741081786>@@V<lambda_601a2a7da3b7a96e9554ac7215c4b07c>@@@?$__crt_seh_guarded_call@P6AXH@Z@@QEAAP6AXH@Z$$QEAV<lambda_450d765d439847d4c735a33c368b5fc0>@@AEAV<lambda_44731a7d0e6d81c3e6aa82d741081786>@@$$QEAV<lambda_601a2a7da3b7a96e9554ac7215c4b07c>@@@Z 000000018002ffd8     libucrt:signal.obj
 0004:00000fe4       $pdata$__acrt_get_sigabrt_handler 000000018002ffe4     libucrt:signal.obj
 0004:00000ff0       $pdata$raise               000000018002fff0     libucrt:signal.obj
 0004:00000ffc       $pdata$_malloc_base        000000018002fffc     libucrt:malloc_base.obj
 0004:00001008       $pdata$_calloc_base        0000000180030008     libucrt:calloc_base.obj
 0004:00001014       $pdata$_free_base          0000000180030014     libucrt:free_base.obj
 0004:00001020       $pdata$?try_get_function@@YAPEAXW4function_id@?A0x391cf84c@@QEBDQEBW4module_id@2@2@Z 0000000180030020     libucrt:winapi_thunks.obj
 0004:0000102c       $pdata$__acrt_AppPolicyGetProcessTerminationMethodInternal 000000018003002c     libucrt:winapi_thunks.obj
 0004:00001038       $pdata$__acrt_AppPolicyGetShowDeveloperDiagnosticInternal 0000000180030038     libucrt:winapi_thunks.obj
 0004:00001044       $pdata$__acrt_AppPolicyGetWindowingModelInternal 0000000180030044     libucrt:winapi_thunks.obj
 0004:00001050       $pdata$__acrt_FlsAlloc     0000000180030050     libucrt:winapi_thunks.obj
 0004:0000105c       $pdata$__acrt_FlsFree      000000018003005c     libucrt:winapi_thunks.obj
 0004:00001068       $pdata$__acrt_FlsGetValue  0000000180030068     libucrt:winapi_thunks.obj
 0004:00001074       $pdata$__acrt_FlsSetValue  0000000180030074     libucrt:winapi_thunks.obj
 0004:00001080       $pdata$__acrt_InitializeCriticalSectionEx 0000000180030080     libucrt:winapi_thunks.obj
 0004:0000108c       $pdata$__acrt_LCMapStringEx 000000018003008c     libucrt:winapi_thunks.obj
 0004:00001098       $pdata$__acrt_LocaleNameToLCID 0000000180030098     libucrt:winapi_thunks.obj
 0004:000010a4       $pdata$__acrt_MessageBoxW  00000001800300a4     libucrt:winapi_thunks.obj
 0004:000010b0       $pdata$__acrt_can_show_message_box 00000001800300b0     libucrt:winapi_thunks.obj
 0004:000010bc       $pdata$__acrt_get_parent_window 00000001800300bc     libucrt:winapi_thunks.obj
 0004:000010c8       $pdata$__acrt_initialize_winapi_thunks 00000001800300c8     libucrt:winapi_thunks.obj
 0004:000010d4       $pdata$__acrt_is_interactive 00000001800300d4     libucrt:winapi_thunks.obj
 0004:000010e0       $pdata$__acrt_uninitialize_winapi_thunks 00000001800300e0     libucrt:winapi_thunks.obj
 0004:000010ec       $pdata$_fcloseall          00000001800300ec     libucrt:closeall.obj
 0004:000010f8       $pdata$__acrt_stdio_free_buffer_nolock 00000001800300f8     libucrt:_freebuf.obj
 0004:00001104       $pdata$?initialize_inherited_file_handles_nolock@@YAXXZ 0000000180030104     libucrt:ioinit.obj
 0004:00001110       $pdata$?initialize_stdio_handles_nolock@@YAXXZ 0000000180030110     libucrt:ioinit.obj
 0004:0000111c       $pdata$__acrt_initialize_lowio 000000018003011c     libucrt:ioinit.obj
 0004:00001128       $pdata$__acrt_uninitialize_lowio 0000000180030128     libucrt:ioinit.obj
 0004:00001134       $pdata$isdigit             0000000180030134     libucrt:_ctype.obj
 0004:00001140       $pdata$?internal_isupper_l@@YA_NHQEAU__crt_locale_pointers@@@Z 0000000180030140     libucrt:tolower_toupper.obj
 0004:0000114c       $pdata$_tolower_l          000000018003014c     libucrt:tolower_toupper.obj
 0004:00001158       $pdata$tolower             0000000180030158     libucrt:tolower_toupper.obj
 0004:00001164       $pdata$strtol              0000000180030164     libucrt:strtox.obj
 0004:00001170       $pdata$wcstol              0000000180030170     libucrt:strtox.obj
 0004:0000117c       $pdata$_mbtowc_l           000000018003017c     libucrt:mbtowc.obj
 0004:00001188       $pdata$_wctomb_s_l         0000000180030188     libucrt:wctomb.obj
 0004:00001194       $pdata$wctomb_s            0000000180030194     libucrt:wctomb.obj
 0004:000011a0       $pdata$??$?RV<lambda_0ae27a3a962d80f24befdcbee591983d>@@AEAV<lambda_8d0ee55de4b1038c4002e0adecdf1839>@@V<lambda_dc504788e8f1664fe9b84e20bfb512f2>@@@?$__crt_seh_guarded_call@X@@QEAAX$$QEAV<lambda_0ae27a3a962d80f24befdcbee591983d>@@AEAV<lambda_8d0ee55de4b1038c4002e0adecdf1839>@@$$QEAV<lambda_dc504788e8f1664fe9b84e20bfb512f2>@@@Z 00000001800301a0     libucrt:per_thread_data.obj
 0004:000011ac       $pdata$??$?RV<lambda_2d41944a1d46af3157314b8a01080d33>@@AEAV<lambda_8f455de75cd7d7f24b4096f044d8b9e6>@@V<lambda_aa500f224e6afead328df44964fe2772>@@@?$__crt_seh_guarded_call@X@@QEAAX$$QEAV<lambda_2d41944a1d46af3157314b8a01080d33>@@AEAV<lambda_8f455de75cd7d7f24b4096f044d8b9e6>@@$$QEAV<lambda_aa500f224e6afead328df44964fe2772>@@@Z 00000001800301ac     libucrt:per_thread_data.obj
 0004:000011b8       $pdata$??$?RV<lambda_aa87e3671a710a21b5dc78c0bdf72e11>@@AEAV<lambda_92619d2358a28f41a33ba319515a20b9>@@V<lambda_6992ecaafeb10aed2b74cb1fae11a551>@@@?$__crt_seh_guarded_call@X@@QEAAX$$QEAV<lambda_aa87e3671a710a21b5dc78c0bdf72e11>@@AEAV<lambda_92619d2358a28f41a33ba319515a20b9>@@$$QEAV<lambda_6992ecaafeb10aed2b74cb1fae11a551>@@@Z 00000001800301b8     libucrt:per_thread_data.obj
 0004:000011c4       $pdata$??$?RV<lambda_f2e299630e499de9f9a165e60fcd3db5>@@AEAV<lambda_2ae9d31cdba2644fcbeaf08da7c24588>@@V<lambda_40d01ff24d0e7b3814fdbdcee8eab3c7>@@@?$__crt_seh_guarded_call@X@@QEAAX$$QEAV<lambda_f2e299630e499de9f9a165e60fcd3db5>@@AEAV<lambda_2ae9d31cdba2644fcbeaf08da7c24588>@@$$QEAV<lambda_40d01ff24d0e7b3814fdbdcee8eab3c7>@@@Z 00000001800301c4     libucrt:per_thread_data.obj
 0004:000011d0       $pdata$?construct_ptd_array@@YAXQEAU__acrt_ptd@@@Z 00000001800301d0     libucrt:per_thread_data.obj
 0004:000011dc       $pdata$?destroy_fls@@YAXPEAX@Z 00000001800301dc     libucrt:per_thread_data.obj
 0004:000011e8       $pdata$?destroy_ptd_array@@YAXQEAU__acrt_ptd@@@Z 00000001800301e8     libucrt:per_thread_data.obj
 0004:000011f4       $pdata$?replace_current_thread_locale_nolock@@YAXQEAU__acrt_ptd@@QEAU__crt_locale_data@@@Z 00000001800301f4     libucrt:per_thread_data.obj
 0004:00001200       $pdata$__acrt_freeptd      0000000180030200     libucrt:per_thread_data.obj
 0004:0000120c       $pdata$__acrt_getptd       000000018003020c     libucrt:per_thread_data.obj
 0004:00001218       $pdata$__acrt_getptd_head  0000000180030218     libucrt:per_thread_data.obj
 0004:00001224       $pdata$__acrt_getptd_noexit 0000000180030224     libucrt:per_thread_data.obj
 0004:00001230       $pdata$__acrt_initialize_ptd 0000000180030230     libucrt:per_thread_data.obj
 0004:0000123c       $pdata$__acrt_uninitialize_ptd 000000018003023c     libucrt:per_thread_data.obj
 0004:00001248       $pdata$__acrt_update_locale_info 0000000180030248     libucrt:locale_update.obj
 0004:00001254       $pdata$__acrt_update_multibyte_info 0000000180030254     libucrt:locale_update.obj
 0004:00001260       $pdata$?fp_format_a@@YAHQEBNPEAD_KQEAD2H_NIQEAU__crt_locale_pointers@@@Z 0000000180030260     libucrt:cvt.obj
 0004:0000126c       $pdata$?fp_format_e@@YAHQEBNQEAD_K12H_NIQEAU__crt_locale_pointers@@@Z 000000018003026c     libucrt:cvt.obj
 0004:00001278       $pdata$?fp_format_e_internal@@YAHQEAD_KH_NIQEAU_strflt@@2QEAU__crt_locale_pointers@@@Z 0000000180030278     libucrt:cvt.obj
 0004:00001284       $pdata$?fp_format_f_internal@@YAHQEAD_KHQEAU_strflt@@_NQEAU__crt_locale_pointers@@@Z 0000000180030284     libucrt:cvt.obj
 0004:00001290       $pdata$?fp_format_g@@YAHQEBNQEAD_K12H_NIQEAU__crt_locale_pointers@@@Z 0000000180030290     libucrt:cvt.obj
 0004:0000129c       $pdata$?fp_format_nan_or_infinity@@YAHW4__acrt_fp_class@@_NPEAD_K1@Z 000000018003029c     libucrt:cvt.obj
 0004:000012a8       $pdata$__acrt_fp_format    00000001800302a8     libucrt:cvt.obj
 0004:000012b4       $pdata$_fputwc_nolock      00000001800302b4     libucrt:fputwc.obj
 0004:000012c0       $pdata$_fileno             00000001800302c0     libucrt:fileno.obj
 0004:000012cc       $pdata$__acrt_stdio_begin_temporary_buffering_nolock 00000001800302cc     libucrt:_sftbuf.obj
 0004:000012d8       $pdata$__acrt_stdio_end_temporary_buffering_nolock 00000001800302d8     libucrt:_sftbuf.obj
 0004:000012e4       $pdata$??$?RV<lambda_410d79af7f07d98d83a3f525b3859a53>@@AEAV<lambda_3e16ef9562a7dcce91392c22ab16ea36>@@V<lambda_38119f0e861e05405d8a144b9b982f0a>@@@?$__crt_seh_guarded_call@X@@QEAAX$$QEAV<lambda_410d79af7f07d98d83a3f525b3859a53>@@AEAV<lambda_3e16ef9562a7dcce91392c22ab16ea36>@@$$QEAV<lambda_38119f0e861e05405d8a144b9b982f0a>@@@Z 00000001800302e4     libucrt:wsetlocale.obj
 0004:000012f0       $pdata$__acrt_uninitialize_locale 00000001800302f0     libucrt:wsetlocale.obj
 0004:000012fc       $pdata$__acrt_initialize_locks 00000001800302fc     libucrt:locks.obj
 0004:00001308       $pdata$__acrt_uninitialize_locks 0000000180030308     libucrt:locks.obj
 0004:00001314       $pdata$__acrt_get_developer_information_policy 0000000180030314     libucrt:win_policies.obj
 0004:00001320       $pdata$__acrt_get_process_end_policy 0000000180030320     libucrt:win_policies.obj
 0004:0000132c       $pdata$__acrt_get_windowing_model_policy 000000018003032c     libucrt:win_policies.obj
 0004:00001338       $pdata$??$common_expand_argv_wildcards@D@@YAHQEAPEADQEAPEAPEAD@Z 0000000180030338     libucrt:argv_wildcards.obj
 0004:00001344       $pdata$??$copy_and_add_argument_to_buffer@D@@YAHQEBD0_KAEAV?$argument_list@D@?A0x5f5c8891@@@Z 0000000180030344     libucrt:argv_wildcards.obj
 0004:00001350       $pdata$??$expand_argument_wildcards@D@@YAHQEAD0AEAV?$argument_list@D@?A0x5f5c8891@@@Z 0000000180030350     libucrt:argv_wildcards.obj
 0004:0000135c       $pdata$??$?RV<lambda_efdfa57d1f175319df784efa44bb7b81>@@AEAV<lambda_5f0a4c1567f8adc6734073e5d1e1b35c>@@V<lambda_2e8a7d3640ea6ccb4c2413664c2db6fd>@@@?$__crt_seh_guarded_call@X@@QEAAX$$QEAV<lambda_efdfa57d1f175319df784efa44bb7b81>@@AEAV<lambda_5f0a4c1567f8adc6734073e5d1e1b35c>@@$$QEAV<lambda_2e8a7d3640ea6ccb4c2413664c2db6fd>@@@Z 000000018003035c     libucrt:mbctype.obj
 0004:00001368       $pdata$?getSystemCP@@YAHH@Z 0000000180030368     libucrt:mbctype.obj
 0004:00001374       $pdata$?setSBCS@@YAXPEAU__crt_multibyte_data@@@Z 0000000180030374     libucrt:mbctype.obj
 0004:00001380       $pdata$?setSBUpLow@@YAXPEAU__crt_multibyte_data@@@Z 0000000180030380     libucrt:mbctype.obj
 0004:0000138c       $pdata$?setmbcp_internal@@YAHH_NQEAU__acrt_ptd@@QEAPEAU__crt_multibyte_data@@@Z 000000018003038c     libucrt:mbctype.obj
 0004:00001398       $pdata$?update_thread_multibyte_data_internal@@YAPEAU__crt_multibyte_data@@QEAU__acrt_ptd@@QEAPEAU1@@Z 0000000180030398     libucrt:mbctype.obj
 0004:000013a4       $pdata$__acrt_initialize_multibyte 00000001800303a4     libucrt:mbctype.obj
 0004:000013b0       $pdata$__acrt_update_thread_multibyte_data 00000001800303b0     libucrt:mbctype.obj
 0004:000013bc       $pdata$_setmbcp_nolock     00000001800303bc     libucrt:mbctype.obj
 0004:000013c8       $pdata$?x_ismbbtype_l@@YAHPEAU__crt_locale_pointers@@IHH@Z 00000001800303c8     libucrt:ismbbyte.obj
 0004:000013d4       $pdata$__acrt_initialize_command_line 00000001800303d4     libucrt:argv_data.obj
 0004:000013e0       $pdata$__acrt_WideCharToMultiByte 00000001800303e0     libucrt:widechartomultibyte.obj
 0004:000013ec       $pdata$__dcrt_get_narrow_environment_from_os 00000001800303ec     libucrt:get_environment_from_os.obj
 0004:000013f8       $pdata$_recalloc_base      00000001800303f8     libucrt:recalloc.obj
 0004:00001404       $pdata$__acrt_initialize_heap 0000000180030404     libucrt:heap_handle.obj
 0004:00001410       $pdata$__acrt_execute_initializers 0000000180030410     libucrt:shared_initialization.obj
 0004:0000141c       $pdata$__acrt_execute_uninitializers 000000018003041c     libucrt:shared_initialization.obj
 0004:00001428       $pdata$__pctype_func       0000000180030428     libucrt:ctype.obj
 0004:00001434       $pdata$iswctype            0000000180030434     libucrt:iswctype.obj
 0004:00001440       $pdata$_isctype_l          0000000180030440     libucrt:isctype.obj
 0004:0000144c       $pdata$?_mbstowcs_l_helper@@YA_KPEA_WPEBD_KPEAU__crt_locale_pointers@@@Z 000000018003044c     libucrt:mbstowcs.obj
 0004:00001458       $pdata$??$?RV<lambda_a37b2b86f63e897a80ea819b0eb08c01>@@AEAV<lambda_38ce7e780aa69e748d6df282ebc68efe>@@V<lambda_99fb1378e971ab6e7edea83e3a7a83a2>@@@?$__crt_seh_guarded_call@H@@QEAAH$$QEAV<lambda_a37b2b86f63e897a80ea819b0eb08c01>@@AEAV<lambda_38ce7e780aa69e748d6df282ebc68efe>@@$$QEAV<lambda_99fb1378e971ab6e7edea83e3a7a83a2>@@@Z 0000000180030458     libucrt:commit.obj
 0004:00001464       $pdata$_commit             0000000180030464     libucrt:commit.obj
 0004:00001470       $pdata$?write_double_translated_ansi_nolock@@YA?AUwrite_result@?A0x17268360@@HQEBDI@Z 0000000180030470     libucrt:write.obj
 0004:0000147c       $pdata$?write_text_ansi_nolock@@YA?AUwrite_result@?A0x17268360@@HQEBDI@Z 000000018003047c     libucrt:write.obj
 0004:00001488       $pdata$?write_text_utf16le_nolock@@YA?AUwrite_result@?A0x17268360@@HQEBDI@Z 0000000180030488     libucrt:write.obj
 0004:00001494       $pdata$?write_text_utf8_nolock@@YA?AUwrite_result@?A0x17268360@@HQEBDI@Z 0000000180030494     libucrt:write.obj
 0004:000014a0       $pdata$_write              00000001800304a0     libucrt:write.obj
 0004:000014ac       $pdata$_write_nolock       00000001800304ac     libucrt:write.obj
 0004:000014b8       $pdata$?GetTableIndexFromLocaleName@@YAHPEB_W@Z 00000001800304b8     libucrt:lcidtoname_downlevel.obj
 0004:000014c4       $pdata$__acrt_DownlevelLocaleNameToLCID 00000001800304c4     libucrt:lcidtoname_downlevel.obj
 0004:000014d0       $pdata$_fclose_nolock      00000001800304d0     libucrt:fclose.obj
 0004:000014dc       $pdata$fclose              00000001800304dc     libucrt:fclose.obj
 0004:000014e8       $pdata$__acrt_lowio_create_handle_array 00000001800304e8     libucrt:osfinfo.obj
 0004:000014f4       $pdata$__acrt_lowio_destroy_handle_array 00000001800304f4     libucrt:osfinfo.obj
 0004:00001500       $pdata$__acrt_lowio_ensure_fh_exists 0000000180030500     libucrt:osfinfo.obj
 0004:0000150c       $pdata$_free_osfhnd        000000018003050c     libucrt:osfinfo.obj
 0004:00001518       $pdata$_get_osfhandle      0000000180030518     libucrt:osfinfo.obj
 0004:00001524       $pdata$_isleadbyte_l       0000000180030524     libucrt:_wctype.obj
 0004:00001530       $pdata$?__acrt_LCMapStringA_stat@@YAHPEAU__crt_locale_pointers@@PEB_WKPEBDHPEADHHH@Z 0000000180030530     libucrt:lcmapstringa.obj
 0004:0000153c       $pdata$__acrt_LCMapStringA 000000018003053c     libucrt:lcmapstringa.obj
 0004:00001548       $pdata$?__mbrtowc_utf8@__crt_mbstring@@YA_KPEA_WPEBD_KPEAU_Mbstatet@@@Z 0000000180030548     libucrt:mbrtowc.obj
 0004:00001554       $pdata$?__mbsrtowcs_utf8@__crt_mbstring@@YA_KPEA_WPEAPEBD_KPEAU_Mbstatet@@@Z 0000000180030554     libucrt:mbrtowc.obj
 0004:00001560       $pdata$__acrt_free_locale  0000000180030560     libucrt:locale_refcounting.obj
 0004:0000156c       $pdata$__acrt_locale_free_lc_time_if_unreferenced 000000018003056c     libucrt:locale_refcounting.obj
 0004:00001578       $pdata$__acrt_release_locale_ref 0000000180030578     libucrt:locale_refcounting.obj
 0004:00001584       $pdata$__acrt_update_thread_locale_data 0000000180030584     libucrt:locale_refcounting.obj
 0004:00001590       $pdata$_updatetlocinfoEx_nolock 0000000180030590     libucrt:locale_refcounting.obj
 0004:0000159c       $pdata$__acrt_fp_strflt_to_string 000000018003059c     libucrt:_fptostr.obj
 0004:000015a8       $pdata$?divide@__crt_strtox@@YA_KAEAUbig_integer@1@AEBU21@@Z 00000001800305a8     libucrt:cfout.obj
 0004:000015b4       $pdata$0$?divide@__crt_strtox@@YA_KAEAUbig_integer@1@AEBU21@@Z 00000001800305b4     libucrt:cfout.obj
 0004:000015c0       $pdata$6$?divide@__crt_strtox@@YA_KAEAUbig_integer@1@AEBU21@@Z 00000001800305c0     libucrt:cfout.obj
 0004:000015cc       $pdata$7$?divide@__crt_strtox@@YA_KAEAUbig_integer@1@AEBU21@@Z 00000001800305cc     libucrt:cfout.obj
 0004:000015d8       $pdata$8$?divide@__crt_strtox@@YA_KAEAUbig_integer@1@AEBU21@@Z 00000001800305d8     libucrt:cfout.obj
 0004:000015e4       $pdata$__acrt_fltout       00000001800305e4     libucrt:cfout.obj
 0004:000015f0       $pdata$memcpy_s            00000001800305f0     libucrt:cfout.obj
 0004:000015fc       $pdata$??$write_buffer_nolock@D@@YA_NDV__crt_stdio_stream@@@Z 00000001800305fc     libucrt:_flsbuf.obj
 0004:00001608       $pdata$??$write_buffer_nolock@_W@@YA_N_WV__crt_stdio_stream@@@Z 0000000180030608     libucrt:_flsbuf.obj
 0004:00001614       $pdata$__acrt_stdio_flush_and_write_narrow_nolock 0000000180030614     libucrt:_flsbuf.obj
 0004:00001620       $pdata$__acrt_stdio_flush_and_write_wide_nolock 0000000180030620     libucrt:_flsbuf.obj
 0004:0000162c       $pdata$_isatty             000000018003062c     libucrt:isatty.obj
 0004:00001638       $pdata$__acrt_locale_free_monetary 0000000180030638     libucrt:initmon.obj
 0004:00001644       $pdata$__acrt_locale_free_numeric 0000000180030644     libucrt:initnum.obj
 0004:00001650       $pdata$?free_crt_array_internal@@YAXQEAPEBX_K@Z 0000000180030650     libucrt:inittime.obj
 0004:0000165c       $pdata$__acrt_locale_free_time 000000018003065c     libucrt:inittime.obj
 0004:00001668       $pdata$__acrt_GetStringTypeA 0000000180030668     libucrt:getstringtypea.obj
 0004:00001674       $pdata$qsort               0000000180030674     libucrt:qsort.obj
 0004:00001680       $pdata$4$qsort             0000000180030680     libucrt:qsort.obj
 0004:0000168c       $pdata$5$qsort             000000018003068c     libucrt:qsort.obj
 0004:00001698       $pdata$strncpy_s           0000000180030698     libucrt:strncpy_s.obj
 0004:000016a4       $pdata$fallbackMethod      00000001800306a4     libucrt:strpbrk.obj
 0004:000016b0       $pdata$strpbrk             00000001800306b0     libucrt:strpbrk.obj
 0004:000016bc       $pdata$??$__acrt_convert_wcs_mbs@D_W$$A6A_KPEA_WPEBD_KPEAU__crt_locale_pointers@@@ZU__crt_win32_buffer_internal_dynamic_resizing@@@@YAHQEBDAEAV?$__crt_win32_buffer@_WU__crt_win32_buffer_internal_dynamic_resizing@@@@A6A_KPEA_WPEBD_KPEAU__crt_locale_pointers@@@Z5@Z 00000001800306bc     libucrt:findfirstfileexa.obj
 0004:000016c8       $pdata$__acrt_FindFirstFileExA 00000001800306c8     libucrt:findfirstfileexa.obj
 0004:000016d4       $pdata$??$__acrt_convert_wcs_mbs@_WD$$A6A_KPEADPEB_W_KPEAU__crt_locale_pointers@@@ZU__crt_win32_buffer_no_resizing@@@@YAHQEB_WAEAV?$__crt_win32_buffer@DU__crt_win32_buffer_no_resizing@@@@A6A_KPEADPEB_W_KPEAU__crt_locale_pointers@@@Z5@Z 00000001800306d4     libucrt:findnextfilea.obj
 0004:000016e0       $pdata$__acrt_FindNextFileA 00000001800306e0     libucrt:findnextfilea.obj
 0004:000016ec       $pdata$_mbsdec_l           00000001800306ec     libucrt:mbsdec.obj
 0004:000016f8       $pdata$?initialize_multibyte@@YAHXZ 00000001800306f8     libucrt:multibyte_initializer.obj
 0004:00001704       $pdata$_msize_base         0000000180030704     libucrt:msize.obj
 0004:00001710       $pdata$_realloc_base       0000000180030710     libucrt:realloc_base.obj
 0004:0000171c       $pdata$??$common_lseek@_J@@YA_JH_JH@Z 000000018003071c     libucrt:lseek.obj
 0004:00001728       $pdata$??$common_lseek_nolock@_J@@YA_JH_JH@Z 0000000180030728     libucrt:lseek.obj
 0004:00001734       $pdata$_putwch_nolock      0000000180030734     libucrt:putwch.obj
 0004:00001740       $pdata$??$?RV<lambda_751a882b2c74d4b022dec766aa51a29a>@@AEAV<lambda_628dfdc04ba53c8bfc02c9951375f3f5>@@V<lambda_f6c7be5f7998530c34de24c7437d6b54>@@@?$__crt_seh_guarded_call@H@@QEAAH$$QEAV<lambda_751a882b2c74d4b022dec766aa51a29a>@@AEAV<lambda_628dfdc04ba53c8bfc02c9951375f3f5>@@$$QEAV<lambda_f6c7be5f7998530c34de24c7437d6b54>@@@Z 0000000180030740     libucrt:close.obj
 0004:0000174c       $pdata$_close              000000018003074c     libucrt:close.obj
 0004:00001758       $pdata$_close_nolock       0000000180030758     libucrt:close.obj
 0004:00001764       $pdata$?__mbrtoc32_utf8@__crt_mbstring@@YA_KPEA_UPEBD_KPEAU_Mbstatet@@@Z 0000000180030764     libucrt:mbrtoc32.obj
 0004:00001770       $pdata$fegetenv            0000000180030770     libucrt:fegetenv.obj
 0004:0000177c       $pdata$fesetenv            000000018003077c     libucrt:fesetenv.obj
 0004:00001788       $pdata$feholdexcept        0000000180030788     libucrt:feholdexcept.obj
 0004:000017a0       $pdata$__acrt_stdio_allocate_buffer_nolock 00000001800307a0     libucrt:_getbuf.obj
 0004:000017ac       $pdata$?_wcstombs_l_helper@@YA_KPEADPEB_W_KPEAU__crt_locale_pointers@@@Z 00000001800307ac     libucrt:wcstombs.obj
 0004:000017b8       $pdata$__dcrt_lowio_ensure_console_output_initialized 00000001800307b8     libucrt:initcon.obj
 0004:000017c4       $pdata$__dcrt_terminate_console_output 00000001800307c4     libucrt:initcon.obj
 0004:000017d0       $pdata$__dcrt_write_console 00000001800307d0     libucrt:initcon.obj
 0004:000017dc       $pdata$__acrt_fenv_set_control 00000001800307dc     libucrt:_fenvutils.obj
 0004:000017e8       $pdata$_clearfp            00000001800307e8     libucrt:ieee.obj
 0004:000017f4       $pdata$_call_matherr       00000001800307f4     libucrt:libm_error.obj
 0004:00001800       $pdata$_exception_enabled  0000000180030800     libucrt:libm_error.obj
 0004:0000180c       $pdata$_handle_error       000000018003080c     libucrt:libm_error.obj
 0004:00001818       $pdata$__acrt_initialize_fma3 0000000180030818     libucrt:fma3_available.obj
 0004:00001824       $pdata$_log10_special      0000000180030824     libucrt:log_special.obj
 0004:00001830       $pdata$_log_special_common 0000000180030830     libucrt:log_special.obj
 0004:0000183c       $pdata$?__wcsrtombs_utf8@__crt_mbstring@@YA_KPEADPEAPEB_W_KPEAU_Mbstatet@@@Z 000000018003083c     libucrt:wcrtomb.obj
 0004:00001854       $pdata$_raise_exc          0000000180030854     libucrt:fpexcept.obj
 0004:00001860       $pdata$_raise_exc_ex       0000000180030860     libucrt:fpexcept.obj
 0004:0000186c       $pdata$_set_errno_from_matherr 000000018003086c     libucrt:fpexcept.obj
 0004:00001878       $pdata$_clrfp              0000000180030878     libucrt:fpctrl.obj
 0004:00001884       $pdata$_ctrlfp             0000000180030884     libucrt:fpctrl.obj
 0004:00001890       $pdata$_set_statfp         0000000180030890     libucrt:fpctrl.obj
 0004:0000189c       $pdata$_statfp             000000018003089c     libucrt:fpctrl.obj
 0004:000018a8       $pdata$?__c16rtomb_utf8@__crt_mbstring@@YA_KPEAD_SPEAU_Mbstatet@@@Z 00000001800308a8     libucrt:c16rtomb.obj
 0004:000018b4       $pdata$?__c32rtomb_utf8@__crt_mbstring@@YA_KPEAD_UPEAU_Mbstatet@@@Z 00000001800308b4     libucrt:c32rtomb.obj
 0004:000018c0       $pdata$?DloadAcquireSectionWriteAccess@@YAXXZ 00000001800308c0     DelayImp:delayhlp.obj
 0004:000018cc       $pdata$?DloadGetSRWLockFunctionPointers@@YAEXZ 00000001800308cc     DelayImp:delayhlp.obj
 0004:000018d8       $pdata$?DloadMakePermanentImageCommit@@YAXPEAX_K@Z 00000001800308d8     DelayImp:delayhlp.obj
 0004:000018e4       $pdata$?DloadObtainSection@@YAPEAXPEAK0@Z 00000001800308e4     DelayImp:delayhlp.obj
 0004:000018f0       $pdata$?DloadProtectSection@@YAXKPEAK@Z 00000001800308f0     DelayImp:delayhlp.obj
 0004:000018fc       $pdata$?DloadReleaseSectionWriteAccess@@YAXXZ 00000001800308fc     DelayImp:delayhlp.obj
 0004:00001908       $pdata$__delayLoadHelper2  0000000180030908     DelayImp:delayhlp.obj
 0004:00001914       $pdata$_IsNonwritableInCurrentImage 0000000180030914     LIBCMT:pesect.obj
 0004:00001920       $pdata$__GSHandlerCheck    0000000180030920     LIBCMT:_gshandler_.obj
 0004:0000192c       $pdata$__GSHandlerCheckCommon 000000018003092c     LIBCMT:_gshandler_.obj
 0004:00001944       $pdata$__GSHandlerCheck_EH 0000000180030944     LIBCMT:gshandlereh.obj
 0004:00001950       $pdata$strrchr             0000000180030950     libvcruntime:strrchr.obj
 0004:00001974       $pdata$__scrt_is_nonwritable_in_current_image$filt$0 0000000180030974     LIBCMT:utility.obj
 0004:00001980       $pdata$?fin$0@?0??dllmain_crt_process_attach@@YAHQEAUHINSTANCE__@@QEAX@Z@4HA 0000000180030980     LIBCMT:dll_dllmain.obj
 0004:0000198c       $pdata$?fin$0@?0??dllmain_crt_process_detach@@YAH_N@Z@4HA 000000018003098c     LIBCMT:dll_dllmain.obj
 0004:00001998       $pdata$?filt$0@?0??dllmain_dispatch@@YAHQEAUHINSTANCE__@@KQEAX@Z@4HA 0000000180030998     LIBCMT:dll_dllmain.obj
 0004:000019a4       $pdata$__DestructExceptionObject$filt$0 00000001800309a4     libvcruntime:ehhelpers.obj
 0004:000019b0       $pdata$?filt$0@?0???$_CallSETranslator@V__FrameHandler3@@@@YAHPEAUEHExceptionRecord@@PEA_KPEAU_CONTEXT@@PEAU_xDISPATCHER_CONTEXT@@PEBU_s_FuncInfo@@K1@Z@4HA 00000001800309b0     libvcruntime:risctrnsctrl.obj
 0004:000019bc       $pdata$?filt$0@?0??CxxCallCatchBlock@__FrameHandler3@@SAPEAXPEAU_EXCEPTION_RECORD@@@Z@4HA 00000001800309bc     libvcruntime:frame.obj
 0004:000019c8       $pdata$?fin$1@?0??CxxCallCatchBlock@__FrameHandler3@@SAPEAXPEAU_EXCEPTION_RECORD@@@Z@4HA 00000001800309c8     libvcruntime:frame.obj
 0004:000019d4       $pdata$?filt$0@?0??FrameUnwindToState@__FrameHandler3@@SAXPEA_KPEAU_xDISPATCHER_CONTEXT@@PEBU_s_FuncInfo@@H@Z@4HA 00000001800309d4     libvcruntime:frame.obj
 0004:000019e0       $pdata$?fin$1@?0??FrameUnwindToState@__FrameHandler3@@SAXPEA_KPEAU_xDISPATCHER_CONTEXT@@PEBU_s_FuncInfo@@H@Z@4HA 00000001800309e0     libvcruntime:frame.obj
 0004:000019ec       $pdata$?fin$0@?0???$?RV<lambda_0d412022a4b28cc8a401ea49574e8ae6>@@AEAV<lambda_a775ed57af18ba8e4d5dc780aa9068fe>@@V<lambda_975a71a6baa488a08f4e15f6b0339b9e>@@@?$__crt_seh_guarded_call@H@@QEAAH$$QEAV<lambda_0d412022a4b28cc8a401ea49574e8ae6>@@AEAV<lambda_a775ed57af18ba8e4d5dc780aa9068fe>@@$$QEAV<lambda_975a71a6baa488a08f4e15f6b0339b9e>@@@Z@4HA 00000001800309ec     libucrt:output.obj
 0004:000019ec       $pdata$?fin$0@?0???$?RV<lambda_c376a267cfb53b6959b3b692ec76b120>@@AEAV<lambda_9a32fed5bf61b6b509b2d3f6003082a1>@@V<lambda_572fbb9fa0ab338edf41edfd4b5fcc8d>@@@?$__crt_seh_guarded_call@H@@QEAAH$$QEAV<lambda_c376a267cfb53b6959b3b692ec76b120>@@AEAV<lambda_9a32fed5bf61b6b509b2d3f6003082a1>@@$$QEAV<lambda_572fbb9fa0ab338edf41edfd4b5fcc8d>@@@Z@4HA 00000001800309ec     libucrt:fflush.obj
 0004:000019ec       $pdata$?fin$0@?0???$?RV<lambda_842d9ff0dc9ef11c61343bbaebe7f885>@@AEAV<lambda_c5860995281e5c4ce005b3de8f5874ee>@@V<lambda_d90129c13df834fdcbf8d2b88dafcf2d>@@@?$__crt_seh_guarded_call@X@@QEAAX$$QEAV<lambda_842d9ff0dc9ef11c61343bbaebe7f885>@@AEAV<lambda_c5860995281e5c4ce005b3de8f5874ee>@@$$QEAV<lambda_d90129c13df834fdcbf8d2b88dafcf2d>@@@Z@4HA 00000001800309ec     libucrt:fflush.obj
 0004:000019ec       $pdata$?fin$0@?0???$?RV<lambda_84ec643ea9557e2f7dc01bb0e9624395>@@AEAV<lambda_ca71763b3c0644891230e4f79ea54fa6>@@V<lambda_439a761618c59b0600e24586724d733b>@@@?$__crt_seh_guarded_call@H@@QEAAH$$QEAV<lambda_84ec643ea9557e2f7dc01bb0e9624395>@@AEAV<lambda_ca71763b3c0644891230e4f79ea54fa6>@@$$QEAV<lambda_439a761618c59b0600e24586724d733b>@@@Z@4HA 00000001800309ec     libucrt:setvbuf.obj
 0004:000019ec       $pdata$?fin$0@?0???$?RV<lambda_a62c933ada0517137acf5807a1eeac1f>@@AEAV<lambda_a31071773b9a94e445cbd5d04ef99106>@@V<lambda_56065050dbf3ada7e59a83db45153de3>@@@?$__crt_seh_guarded_call@H@@QEAAH$$QEAV<lambda_a62c933ada0517137acf5807a1eeac1f>@@AEAV<lambda_a31071773b9a94e445cbd5d04ef99106>@@$$QEAV<lambda_56065050dbf3ada7e59a83db45153de3>@@@Z@4HA 00000001800309ec     libucrt:output.obj
 0004:000019f8       $pdata$_query_new_handler$fin$0 00000001800309f8     libucrt:new_handler.obj
 0004:00001a04       $pdata$?fin$0@?0???$?RV<lambda_d80eeec6fff315bfe5c115232f3240e3>@@AEAV<lambda_6e4b09c48022b2350581041d5f6b0c4c>@@V<lambda_2358e3775559c9db80273638284d5e45>@@@?$__crt_seh_guarded_call@X@@QEAAX$$QEAV<lambda_d80eeec6fff315bfe5c115232f3240e3>@@AEAV<lambda_6e4b09c48022b2350581041d5f6b0c4c>@@$$QEAV<lambda_2358e3775559c9db80273638284d5e45>@@@Z@4HA 0000000180030a04     libucrt:exit.obj
 0004:00001a04       $pdata$?fin$0@?0???$?RV<lambda_2d41944a1d46af3157314b8a01080d33>@@AEAV<lambda_8f455de75cd7d7f24b4096f044d8b9e6>@@V<lambda_aa500f224e6afead328df44964fe2772>@@@?$__crt_seh_guarded_call@X@@QEAAX$$QEAV<lambda_2d41944a1d46af3157314b8a01080d33>@@AEAV<lambda_8f455de75cd7d7f24b4096f044d8b9e6>@@$$QEAV<lambda_aa500f224e6afead328df44964fe2772>@@@Z@4HA 0000000180030a04     libucrt:per_thread_data.obj
 0004:00001a04       $pdata$?fin$0@?0???$?RV<lambda_aa87e3671a710a21b5dc78c0bdf72e11>@@AEAV<lambda_92619d2358a28f41a33ba319515a20b9>@@V<lambda_6992ecaafeb10aed2b74cb1fae11a551>@@@?$__crt_seh_guarded_call@X@@QEAAX$$QEAV<lambda_aa87e3671a710a21b5dc78c0bdf72e11>@@AEAV<lambda_92619d2358a28f41a33ba319515a20b9>@@$$QEAV<lambda_6992ecaafeb10aed2b74cb1fae11a551>@@@Z@4HA 0000000180030a04     libucrt:per_thread_data.obj
 0004:00001a04       $pdata$?fin$0@?0???$?RV<lambda_0ae27a3a962d80f24befdcbee591983d>@@AEAV<lambda_8d0ee55de4b1038c4002e0adecdf1839>@@V<lambda_dc504788e8f1664fe9b84e20bfb512f2>@@@?$__crt_seh_guarded_call@X@@QEAAX$$QEAV<lambda_0ae27a3a962d80f24befdcbee591983d>@@AEAV<lambda_8d0ee55de4b1038c4002e0adecdf1839>@@$$QEAV<lambda_dc504788e8f1664fe9b84e20bfb512f2>@@@Z@4HA 0000000180030a04     libucrt:per_thread_data.obj
 0004:00001a04       $pdata$?fin$0@?0???$?RV<lambda_450d765d439847d4c735a33c368b5fc0>@@AEAV<lambda_44731a7d0e6d81c3e6aa82d741081786>@@V<lambda_601a2a7da3b7a96e9554ac7215c4b07c>@@@?$__crt_seh_guarded_call@P6AXH@Z@@QEAAP6AXH@Z$$QEAV<lambda_450d765d439847d4c735a33c368b5fc0>@@AEAV<lambda_44731a7d0e6d81c3e6aa82d741081786>@@$$QEAV<lambda_601a2a7da3b7a96e9554ac7215c4b07c>@@@Z@4HA 0000000180030a04     libucrt:signal.obj
 0004:00001a04       $pdata$?fin$0@?0???$?RV<lambda_efdfa57d1f175319df784efa44bb7b81>@@AEAV<lambda_5f0a4c1567f8adc6734073e5d1e1b35c>@@V<lambda_2e8a7d3640ea6ccb4c2413664c2db6fd>@@@?$__crt_seh_guarded_call@X@@QEAAX$$QEAV<lambda_efdfa57d1f175319df784efa44bb7b81>@@AEAV<lambda_5f0a4c1567f8adc6734073e5d1e1b35c>@@$$QEAV<lambda_2e8a7d3640ea6ccb4c2413664c2db6fd>@@@Z@4HA 0000000180030a04     libucrt:mbctype.obj
 0004:00001a04       $pdata$?fin$0@?0???$?RV<lambda_8369fcb7c4df1e85de37618bd2b85f07>@@AEAV<lambda_a10e4b102d4a2c3aac6f4f48bbdf488f>@@V<lambda_5b7707bd6d7a0c4713179f36c7fd995d>@@@?$__crt_seh_guarded_call@H@@QEAAH$$QEAV<lambda_8369fcb7c4df1e85de37618bd2b85f07>@@AEAV<lambda_a10e4b102d4a2c3aac6f4f48bbdf488f>@@$$QEAV<lambda_5b7707bd6d7a0c4713179f36c7fd995d>@@@Z@4HA 0000000180030a04     libucrt:onexit.obj
 0004:00001a04       $pdata$?fin$0@?0???$?RV<lambda_7777bce6b2f8c936911f934f8298dc43>@@AEAV<lambda_f03950bc5685219e0bcd2087efbe011e>@@V<lambda_3883c3dff614d5e0c5f61bb1ac94921c>@@@?$__crt_seh_guarded_call@H@@QEAAH$$QEAV<lambda_7777bce6b2f8c936911f934f8298dc43>@@AEAV<lambda_f03950bc5685219e0bcd2087efbe011e>@@$$QEAV<lambda_3883c3dff614d5e0c5f61bb1ac94921c>@@@Z@4HA 0000000180030a04     libucrt:onexit.obj
 0004:00001a04       $pdata$?fin$0@?0???$?RV<lambda_f2e299630e499de9f9a165e60fcd3db5>@@AEAV<lambda_2ae9d31cdba2644fcbeaf08da7c24588>@@V<lambda_40d01ff24d0e7b3814fdbdcee8eab3c7>@@@?$__crt_seh_guarded_call@X@@QEAAX$$QEAV<lambda_f2e299630e499de9f9a165e60fcd3db5>@@AEAV<lambda_2ae9d31cdba2644fcbeaf08da7c24588>@@$$QEAV<lambda_40d01ff24d0e7b3814fdbdcee8eab3c7>@@@Z@4HA 0000000180030a04     libucrt:per_thread_data.obj
 0004:00001a10       $pdata$?filt$0@?0???R<lambda_6e4b09c48022b2350581041d5f6b0c4c>@@QEBA@XZ@4HA 0000000180030a10     libucrt:exit.obj
 0004:00001a1c       $pdata$?fin$0@?0???$?RV<lambda_886d6c58226a84441f68b9f2b8217b83>@@AEAV<lambda_ab61a845afdef5b7c387490eaf3616ee>@@V<lambda_f7f22ab5edc0698d5f6905b0d3f44752>@@@?$__crt_seh_guarded_call@X@@QEAAX$$QEAV<lambda_886d6c58226a84441f68b9f2b8217b83>@@AEAV<lambda_ab61a845afdef5b7c387490eaf3616ee>@@$$QEAV<lambda_f7f22ab5edc0698d5f6905b0d3f44752>@@@Z@4HA 0000000180030a1c     libucrt:fflush.obj
 0004:00001a28       $pdata$raise$fin$0         0000000180030a28     libucrt:signal.obj
 0004:00001a34       $pdata$_fcloseall$fin$0    0000000180030a34     libucrt:closeall.obj
 0004:00001a40       $pdata$__acrt_lowio_ensure_fh_exists$fin$0 0000000180030a40     libucrt:osfinfo.obj
 0004:00001a40       $pdata$__acrt_initialize_lowio$fin$0 0000000180030a40     libucrt:ioinit.obj
 0004:00001a4c       $pdata$?fin$0@?0???$?RV<lambda_410d79af7f07d98d83a3f525b3859a53>@@AEAV<lambda_3e16ef9562a7dcce91392c22ab16ea36>@@V<lambda_38119f0e861e05405d8a144b9b982f0a>@@@?$__crt_seh_guarded_call@X@@QEAAX$$QEAV<lambda_410d79af7f07d98d83a3f525b3859a53>@@AEAV<lambda_3e16ef9562a7dcce91392c22ab16ea36>@@$$QEAV<lambda_38119f0e861e05405d8a144b9b982f0a>@@@Z@4HA 0000000180030a4c     libucrt:wsetlocale.obj
 0004:00001a58       $pdata$?fin$0@?0??update_thread_multibyte_data_internal@@YAPEAU__crt_multibyte_data@@QEAU__acrt_ptd@@QEAPEAU1@@Z@4HA 0000000180030a58     libucrt:mbctype.obj
 0004:00001a64       $pdata$?fin$0@?0???$?RV<lambda_a37b2b86f63e897a80ea819b0eb08c01>@@AEAV<lambda_38ce7e780aa69e748d6df282ebc68efe>@@V<lambda_99fb1378e971ab6e7edea83e3a7a83a2>@@@?$__crt_seh_guarded_call@H@@QEAAH$$QEAV<lambda_a37b2b86f63e897a80ea819b0eb08c01>@@AEAV<lambda_38ce7e780aa69e748d6df282ebc68efe>@@$$QEAV<lambda_99fb1378e971ab6e7edea83e3a7a83a2>@@@Z@4HA 0000000180030a64     libucrt:commit.obj
 0004:00001a64       $pdata$?fin$0@?0???$?RV<lambda_751a882b2c74d4b022dec766aa51a29a>@@AEAV<lambda_628dfdc04ba53c8bfc02c9951375f3f5>@@V<lambda_f6c7be5f7998530c34de24c7437d6b54>@@@?$__crt_seh_guarded_call@H@@QEAAH$$QEAV<lambda_751a882b2c74d4b022dec766aa51a29a>@@AEAV<lambda_628dfdc04ba53c8bfc02c9951375f3f5>@@$$QEAV<lambda_f6c7be5f7998530c34de24c7437d6b54>@@@Z@4HA 0000000180030a64     libucrt:close.obj
 0004:00001a70       $pdata$_write$fin$0        0000000180030a70     libucrt:write.obj
 0004:00001a70       $pdata$?fin$0@?0???$common_lseek@_J@@YA_JH_JH@Z@4HA 0000000180030a70     libucrt:lseek.obj
 0004:00001a7c       $pdata$fclose$fin$0        0000000180030a7c     libucrt:fclose.obj
 0004:00001a88       $pdata$__acrt_update_thread_locale_data$fin$0 0000000180030a88     libucrt:locale_refcounting.obj
 0004:00001a94       $pdata$_ctrlfp$filt$0      0000000180030a94     libucrt:fpctrl.obj
 0004:00001aa0       $pdata$_IsNonwritableInCurrentImage$filt$0 0000000180030aa0     LIBCMT:pesect.obj
 0005:00000060       $R000000                   0000000180031060     * linker generated manifest res *

 Exports

  ordinal    name

        1    _register_kerberos_
